(lp0
(F0.003337860107421875
L5L
(lp1
(L0L
L6L
L0L
V12340
p2
tp3
a(L0L
L5L
L0L
V40213
p4
tp5
a(L0L
L1L
L1L
V20431
p6
tp7
a(L0L
L1L
L1L
V43210
p8
tp9
aV[0] lvl: 4 | 0/6:12340 0/5:40213 0/1(1):20431 0/1(1):43210
p10
tp11
a(F0.008976221084594727
L8L
(lp12
g3
a(L1L
L5L
L0L
V34102
p13
tp14
a(L0L
L1L
L1L
V01432
p15
tp16
a(L0L
L1L
L1L
V32104
p17
tp18
aV[1] lvl: 4 | 0/6:12340 1/5:34102 0/1(1):01432 0/1(1):32104
p19
tp20
a(F0.034323930740356445
L16L
(lp21
(L1L
L6L
L0L
V12430
p22
tp23
a(L1L
L5L
L0L
V30214
p24
tp25
a(L0L
L1L
L1L
V20341
p26
tp27
a(L0L
L1L
L1L
V34210
p28
tp29
aV[2] lvl: 4 | 1/6:12430 1/5:30214 0/1(1):20341 0/1(1):34210
p30
tp31
a(F0.037763118743896484
L19L
(lp32
g23
a(L2L
L5L
L0L
V43102
p33
tp34
a(L0L
L1L
L1L
V01342
p35
tp36
a(L0L
L1L
L1L
V42103
p37
tp38
aV[3] lvl: 4 | 1/6:12430 2/5:43102 0/1(1):01342 0/1(1):42103
p39
tp40
a(F0.04470205307006836
L26L
(lp41
(L2L
L6L
L0L
g26
tp42
a(L1L
L5L
L0L
V41023
p43
tp44
a(L0L
L1L
L1L
g15
tp45
a(L0L
L1L
L1L
V43021
p46
tp47
aV[4] lvl: 4 | 2/6:20341 1/5:41023 0/1(1):01432 0/1(1):43021
p48
tp49
a(F0.05347919464111328
L33L
(lp50
(L3L
L6L
L0L
g6
tp51
a(L2L
L5L
L0L
V31024
p52
tp53
a(L0L
L1L
L1L
g35
tp54
a(L0L
L1L
L1L
V34021
p55
tp56
aV[5] lvl: 4 | 3/6:20431 2/5:31024 0/1(1):01342 0/1(1):34021
p57
tp58
a.