(lp0
(F41.56597971916199
L121063L
(lp1
(L0L
L24L
L0L
V123450
p2
tp3
a(L0L
L31L
L0L
V450213
p4
tp5
a(L0L
L31L
L0L
V354021
p6
tp7
a(L0L
L29L
L0L
V021534
p8
tp9
a(L0L
L29L
L0L
V534201
p10
tp11
a(L2L
L27L
L0L
V425013
p12
tp13
a(L2L
L30L
L0L
V013245
p14
tp15
a(L2L
L25L
L0L
V451032
p16
tp17
a(L0L
L1L
L1L
V451302
p18
tp19
a(L10L
L23L
L0L
V342105
p20
tp21
a(L0L
L1L
L1L
V451023
p22
tp23
a(L5L
L20L
L0L
V105432
p24
tp25
a(L15L
L17L
L0L
V012453
p26
tp27
a(L0L
L1L
L2L
V450312
p28
tp29
a(L0L
L1L
L2L
V250431
p30
tp31
a(L0L
L1L
L1L
V453102
p32
tp33
a(L0L
L1L
L2L
V503142
p34
tp35
a(L0L
L1L
L1L
V503412
p36
tp37
a(L0L
L1L
L1L
V152043
p38
tp39
a(L0L
L1L
L1L
V352104
p40
tp41
a(L0L
L1L
L1L
V045321
p42
tp43
a(L0L
L1L
L1L
V321405
p44
tp45
a(L0L
L1L
L1L
V140352
p46
tp47
a(L0L
L1L
L1L
V352410
p48
tp49
a(L0L
L1L
L1L
V053241
p50
tp51
aV[0] lvl: 25 | 0/24:123450 0/31:450213 0/31:354021 0/29:021534 0/29:534201 2/27:425013 2/30:013245 2/25:451032 0/1(1):451302 10/23:342105 0/1(1):451023 5/20:105432 15/17:012453 0/1(2):450312 0/1(2):250431 0/1(1):453102 0/1(2):503142 0/1(1):503412 0/1(1):152043 0/1(1):352104 0/1(1):045321 0/1(1):321405 0/1(1):140352 0/1(1):352410 0/1(1):053241
p52
tp53
a(F43.17354774475098
L125441L
(lp54
g3
ag5
ag7
ag9
ag11
ag13
ag15
a(L10L
L25L
L0L
g20
tp55
a(L9L
L28L
L0L
g24
tp56
a(L19L
L24L
L0L
g22
tp57
a(L17L
L26L
L0L
V354102
p58
tp59
a(L0L
L1L
L2L
V351042
p60
tp61
a(L0L
L1L
L1L
V351402
p62
tp63
a(L14L
L16L
L0L
g26
tp64
a(L0L
L1L
L1L
g28
tp65
a(L0L
L1L
L3L
g30
tp66
a(L0L
L1L
L2L
g34
tp67
a(L0L
L1L
L1L
g36
tp68
a(L0L
L1L
L1L
g38
tp69
a(L0L
L1L
L1L
g40
tp70
a(L0L
L1L
L1L
g42
tp71
a(L0L
L1L
L1L
g44
tp72
a(L0L
L1L
L1L
g46
tp73
a(L0L
L1L
L1L
g48
tp74
a(L0L
L1L
L1L
g50
tp75
aV[1] lvl: 25 | 0/24:123450 0/31:450213 0/31:354021 0/29:021534 0/29:534201 2/27:425013 2/30:013245 10/25:342105 9/28:105432 19/24:451023 17/26:354102 0/1(2):351042 0/1(1):351402 14/16:012453 0/1(1):450312 0/1(3):250431 0/1(2):503142 0/1(1):503412 0/1(1):152043 0/1(1):352104 0/1(1):045321 0/1(1):321405 0/1(1):140352 0/1(1):352410 0/1(1):053241
p76
tp77
a(F97.19079875946045
L272500L
(lp78
g3
ag5
ag7
ag9
ag11
a(L5L
L27L
L0L
g20
tp79
a(L4L
L30L
L0L
g24
tp80
a(L6L
L30L
L0L
V431205
p81
tp82
a(L5L
L30L
L0L
V534120
p83
tp84
a(L6L
L27L
L0L
V531420
p85
tp86
a(L5L
L24L
L0L
V531240
p87
tp88
a(L9L
L21L
L0L
V542310
p89
tp90
a(L13L
L21L
L0L
V421035
p91
tp92
a(L0L
L1L
L3L
V104352
p93
tp94
a(L0L
L1L
L2L
V352140
p95
tp96
a(L0L
L1L
L2L
V230451
p97
tp98
a(L0L
L1L
L2L
V053214
p99
tp100
a(L0L
L1L
L1L
g48
tp101
a(L0L
L1L
L2L
g50
tp102
a(L0L
L1L
L2L
V524310
p103
tp104
a(L0L
L1L
L2L
V310254
p105
tp106
a(L0L
L1L
L2L
V410325
p107
tp108
a(L0L
L1L
L3L
V104325
p109
tp110
a(L0L
L1L
L2L
V325140
p111
tp112
a(L0L
L1L
L1L
V532401
p113
tp114
aV[2] lvl: 25 | 0/24:123450 0/31:450213 0/31:354021 0/29:021534 0/29:534201 5/27:342105 4/30:105432 6/30:431205 5/30:534120 6/27:531420 5/24:531240 9/21:542310 13/21:421035 0/1(3):104352 0/1(2):352140 0/1(2):230451 0/1(2):053214 0/1(1):352410 0/1(2):053241 0/1(2):524310 0/1(2):310254 0/1(2):410325 0/1(3):104325 0/1(2):325140 0/1(1):532401
p115
tp116
a(F98.17265057563782
L274942L
(lp117
g3
ag5
ag7
ag9
ag11
ag79
ag80
ag82
a(L12L
L30L
L0L
g89
tp118
a(L16L
L30L
L0L
g91
tp119
a(L0L
L1L
L3L
g93
tp120
a(L0L
L1L
L2L
g95
tp121
a(L0L
L1L
L2L
g97
tp122
a(L0L
L1L
L2L
g99
tp123
a(L0L
L1L
L1L
g48
tp124
a(L0L
L1L
L2L
g50
tp125
a(L0L
L1L
L2L
g103
tp126
a(L0L
L1L
L2L
g105
tp127
a(L0L
L1L
L2L
g107
tp128
a(L0L
L1L
L3L
g109
tp129
a(L0L
L1L
L2L
g111
tp130
a(L0L
L1L
L1L
g113
tp131
a(L3L
L6L
L0L
V431250
p132
tp133
a(L0L
L1L
L2L
V431520
p134
tp135
a(L0L
L1L
L1L
V435120
p136
tp137
aV[3] lvl: 25 | 0/24:123450 0/31:450213 0/31:354021 0/29:021534 0/29:534201 5/27:342105 4/30:105432 6/30:431205 12/30:542310 16/30:421035 0/1(3):104352 0/1(2):352140 0/1(2):230451 0/1(2):053214 0/1(1):352410 0/1(2):053241 0/1(2):524310 0/1(2):310254 0/1(2):410325 0/1(3):104325 0/1(2):325140 0/1(1):532401 3/6:431250 0/1(2):431520 0/1(1):435120
p138
tp139
a(F104.92985391616821
L292927L
(lp140
g3
ag5
ag7
ag9
ag11
ag79
a(L5L
L30L
L0L
V543210
p141
tp142
a(L5L
L35L
L0L
V210453
p143
tp144
a(L0L
L1L
L3L
g42
tp145
a(L0L
L1L
L2L
V215043
p146
tp147
a(L0L
L1L
L2L
g22
tp148
a(L0L
L1L
L2L
g58
tp149
a(L0L
L1L
L2L
V234510
p150
tp151
a(L0L
L1L
L2L
V451203
p152
tp153
a(L0L
L1L
L4L
g132
tp154
a(L0L
L1L
L3L
g134
tp155
a(L0L
L1L
L3L
g44
tp156
a(L0L
L1L
L4L
g97
tp157
a(L0L
L1L
L3L
g62
tp158
a(L0L
L1L
L2L
V453120
p159
tp160
a(L0L
L1L
L2L
V513204
p161
tp162
a(L0L
L1L
L2L
V041532
p163
tp164
a(L0L
L1L
L3L
V324105
p165
tp166
a(L0L
L1L
L2L
V532014
p167
tp168
a(L0L
L1L
L1L
g113
tp169
aV[4] lvl: 25 | 0/24:123450 0/31:450213 0/31:354021 0/29:021534 0/29:534201 5/27:342105 5/30:543210 5/35:210453 0/1(3):045321 0/1(2):215043 0/1(2):451023 0/1(2):354102 0/1(2):234510 0/1(2):451203 0/1(4):431250 0/1(3):431520 0/1(3):321405 0/1(4):230451 0/1(3):351402 0/1(2):453120 0/1(2):513204 0/1(2):041532 0/1(3):324105 0/1(2):532014 0/1(1):532401
p170
tp171
a(F144.6822748184204
L398883L
(lp172
g3
ag5
ag7
ag9
ag11
a(L7L
L27L
L0L
V210534
p173
tp174
a(L7L
L32L
L0L
V412053
p175
tp176
a(L12L
L32L
L0L
V205431
p177
tp178
a(L22L
L27L
L0L
g22
tp179
a(L0L
L1L
L1L
g62
tp180
a(L18L
L25L
L0L
V235410
p181
tp182
a(L16L
L22L
L0L
V412035
p183
tp184
a(L0L
L1L
L1L
g60
tp185
a(L0L
L1L
L1L
V124530
p186
tp187
a(L10L
L13L
L0L
V230541
p188
tp189
a(L8L
L11L
L0L
V541320
p190
tp191
a(L2L
L3L
L0L
V021453
p192
tp193
a(L0L
L1L
L4L
V145032
p194
tp195
a(L0L
L1L
L5L
V321045
p196
tp197
a(L0L
L1L
L4L
g44
tp198
a(L0L
L1L
L3L
g28
tp199
a(L0L
L1L
L3L
g30
tp200
a(L0L
L1L
L3L
g134
tp201
a(L0L
L1L
L2L
V501324
p202
tp203
a(L0L
L1L
L1L
g167
tp204
aV[5] lvl: 25 | 0/24:123450 0/31:450213 0/31:354021 0/29:021534 0/29:534201 7/27:210534 7/32:412053 12/32:205431 22/27:451023 0/1(1):351402 18/25:235410 16/22:412035 0/1(1):351042 0/1(1):124530 10/13:230541 8/11:541320 2/3:021453 0/1(4):145032 0/1(5):321045 0/1(4):321405 0/1(3):450312 0/1(3):250431 0/1(3):431520 0/1(2):501324 0/1(1):532014
p205
tp206
a(F197.14427590370178
L539114L
(lp207
g3
ag5
ag7
ag9
ag11
a(L14L
L27L
L0L
g150
tp208
a(L18L
L31L
L0L
V452103
p209
tp210
a(L14L
L29L
L0L
V521043
p211
tp212
a(L13L
L32L
L0L
g146
tp213
a(L0L
L1L
L1L
g152
tp214
a(L0L
L1L
L2L
g132
tp215
a(L0L
L1L
L2L
g42
tp216
a(L0L
L1L
L2L
g134
tp217
a(L0L
L1L
L1L
g167
tp218
a(L7L
L13L
L0L
g143
tp219
a(L0L
L1L
L1L
g22
tp220
a(L0L
L1L
L1L
g62
tp221
a(L0L
L1L
L3L
g97
tp222
a(L0L
L1L
L4L
V452130
p223
tp224
a(L0L
L1L
L3L
V452310
p225
tp226
a(L0L
L1L
L3L
g58
tp227
a(L0L
L1L
L2L
g159
tp228
a(L0L
L1L
L1L
g161
tp229
a(L0L
L1L
L1L
g163
tp230
a(L0L
L1L
L1L
g113
tp231
aV[6] lvl: 25 | 0/24:123450 0/31:450213 0/31:354021 0/29:021534 0/29:534201 14/27:234510 18/31:452103 14/29:521043 13/32:215043 0/1(1):451203 0/1(2):431250 0/1(2):045321 0/1(2):431520 0/1(1):532014 7/13:210453 0/1(1):451023 0/1(1):351402 0/1(3):230451 0/1(4):452130 0/1(3):452310 0/1(3):354102 0/1(2):453120 0/1(1):513204 0/1(1):041532 0/1(1):532401
p232
tp233
a(F319.7235095500946
L858787L
(lp234
g3
ag5
ag7
ag9
a(L1L
L29L
L0L
V420153
p235
tp236
a(L6L
L31L
L0L
g20
tp237
a(L19L
L34L
L0L
V021345
p238
tp239
a(L16L
L29L
L0L
V452013
p240
tp241
a(L0L
L1L
L1L
V340521
p242
tp243
a(L0L
L1L
L1L
g186
tp244
a(L15L
L20L
L0L
V245310
p245
tp246
a(L12L
L17L
L0L
g159
tp247
a(L9L
L14L
L0L
g83
tp248
a(L9L
L13L
L0L
g85
tp249
a(L0L
L1L
L1L
g87
tp250
a(L0L
L1L
L1L
V124503
p251
tp252
a(L4L
L6L
L0L
V450132
p253
tp254
a(L5L
L7L
L0L
V013425
p255
tp256
a(L0L
L1L
L2L
V340251
p257
tp258
a(L0L
L1L
L1L
V420513
p259
tp260
a(L0L
L1L
L0L
V531024
p261
tp262
a(L0L
L1L
L4L
V243150
p263
tp264
a(L0L
L1L
L3L
V243510
p265
tp266
a(L0L
L1L
L2L
g105
tp267
a(L0L
L1L
L1L
V310524
p268
tp269
aV[7] lvl: 25 | 0/24:123450 0/31:450213 0/31:354021 0/29:021534 1/29:420153 6/31:342105 19/34:021345 16/29:452013 0/1(1):340521 0/1(1):124530 15/20:245310 12/17:453120 9/14:534120 9/13:531420 0/1(1):531240 0/1(1):124503 4/6:450132 5/7:013425 0/1(2):340251 0/1(1):420513 0/1:531024 0/1(4):243150 0/1(3):243510 0/1(2):310254 0/1(1):310524
p270
tp271
a(F319.7454388141632
L858831L
(lp272
g3
ag5
ag7
ag9
ag236
ag237
ag239
ag241
ag243
ag244
ag246
ag247
a(L12L
L14L
L0L
g261
tp273
a(L0L
L1L
L4L
g263
tp274
a(L0L
L1L
L3L
g265
tp275
a(L0L
L1L
L2L
g105
tp276
a(L0L
L1L
L1L
g268
tp277
a(L8L
L11L
L0L
g136
tp278
a(L0L
L1L
L2L
g132
tp279
a(L0L
L1L
L2L
g251
tp280
a(L0L
L1L
L2L
g134
tp281
a(L0L
L1L
L1L
g253
tp282
a(L0L
L1L
L1L
g255
tp283
a(L0L
L1L
L2L
g257
tp284
a(L0L
L1L
L1L
g259
tp285
aV[8] lvl: 25 | 0/24:123450 0/31:450213 0/31:354021 0/29:021534 1/29:420153 6/31:342105 19/34:021345 16/29:452013 0/1(1):340521 0/1(1):124530 15/20:245310 12/17:453120 12/14:531024 0/1(4):243150 0/1(3):243510 0/1(2):310254 0/1(1):310524 8/11:435120 0/1(2):431250 0/1(2):124503 0/1(2):431520 0/1(1):450132 0/1(1):013425 0/1(2):340251 0/1(1):420513
p286
tp287
a(F414.99360370635986
L1106295L
(lp288
g3
ag5
ag7
ag9
a(L2L
L29L
L0L
g20
tp289
a(L2L
L34L
L0L
g24
tp290
a(L4L
L34L
L0L
V543120
p291
tp292
a(L0L
L1L
L1L
g89
tp293
a(L7L
L31L
L0L
g132
tp294
a(L11L
L30L
L0L
g141
tp295
a(L8L
L25L
L0L
g42
tp296
a(L8L
L23L
L0L
V214053
p297
tp298
a(L0L
L1L
L1L
V421305
p299
tp300
a(L6L
L14L
L0L
V314025
p301
tp302
a(L0L
L1L
L1L
V025134
p303
tp304
a(L0L
L1L
L1L
g12
tp305
a(L0L
L1L
L1L
g14
tp306
a(L6L
L8L
L0L
V103542
p307
tp308
a(L0L
L1L
L2L
g173
tp309
a(L0L
L1L
L3L
g50
tp310
a(L0L
L1L
L2L
V341025
p311
tp312
a(L0L
L1L
L2L
V420135
p313
tp314
a(L0L
L1L
L3L
V134520
p315
tp316
a(L0L
L1L
L2L
V135240
p317
tp318
a(L0L
L1L
L1L
V543102
p319
tp320
aV[9] lvl: 25 | 0/24:123450 0/31:450213 0/31:354021 0/29:021534 2/29:342105 2/34:105432 4/34:543120 0/1(1):542310 7/31:431250 11/30:543210 8/25:045321 8/23:214053 0/1(1):421305 6/14:314025 0/1(1):025134 0/1(1):425013 0/1(1):013245 6/8:103542 0/1(2):210534 0/1(3):053241 0/1(2):341025 0/1(2):420135 0/1(3):134520 0/1(2):135240 0/1(1):543102
p321
tp322
a(F443.89633774757385
L1179021L
(lp323
g3
ag5
ag7
ag9
ag289
ag290
a(L9L
L34L
L0L
g299
tp324
a(L13L
L29L
L0L
g307
tp325
a(L11L
L30L
L0L
g313
tp326
a(L10L
L29L
L0L
g317
tp327
a(L10L
L23L
L0L
g315
tp328
a(L9L
L17L
L0L
g173
tp329
a(L6L
L17L
L0L
g311
tp330
a(L0L
L1L
L1L
g319
tp331
a(L0L
L1L
L1L
g50
tp332
a(L4L
L13L
L0L
g245
tp333
a(L0L
L1L
L3L
g42
tp334
a(L0L
L1L
L3L
g297
tp335
a(L0L
L1L
L3L
g263
tp336
a(L0L
L1L
L3L
g265
tp337
a(L0L
L1L
L2L
g301
tp338
a(L0L
L1L
L2L
g303
tp339
a(L0L
L1L
L2L
g12
tp340
a(L0L
L1L
L2L
g14
tp341
a(L0L
L1L
L1L
g132
tp342
aV[10] lvl: 25 | 0/24:123450 0/31:450213 0/31:354021 0/29:021534 2/29:342105 2/34:105432 9/34:421305 13/29:103542 11/30:420135 10/29:135240 10/23:134520 9/17:210534 6/17:341025 0/1(1):543102 0/1(1):053241 4/13:245310 0/1(3):045321 0/1(3):214053 0/1(3):243150 0/1(3):243510 0/1(2):314025 0/1(2):025134 0/1(2):425013 0/1(2):013245 0/1(1):431250
p343
tp344
a(F518.2353925704956
L1368733L
(lp345
g3
ag5
ag7
ag9
ag289
a(L5L
L34L
L0L
V423105
p346
tp347
a(L7L
L35L
L0L
V231045
p348
tp349
a(L0L
L1L
L1L
g42
tp350
a(L4L
L26L
L0L
g167
tp351
a(L0L
L1L
L1L
g299
tp352
a(L4L
L21L
L0L
V435201
p353
tp354
a(L5L
L20L
L0L
V520413
p355
tp356
a(L0L
L1L
L1L
g163
tp357
a(L0L
L1L
L2L
V045132
p358
tp359
a(L0L
L1L
L1L
V154032
p360
tp361
a(L0L
L1L
L2L
g111
tp362
a(L0L
L1L
L2L
g303
tp363
a(L0L
L1L
L1L
V325410
p364
tp365
a(L2L
L7L
L0L
g159
tp366
a(L0L
L1L
L1L
V403125
p367
tp368
a(L0L
L1L
L1L
g30
tp369
a(L0L
L1L
L1L
g134
tp370
a(L0L
L1L
L1L
g91
tp371
a(L0L
L1L
L1L
V210435
p372
tp373
a(L0L
L1L
L1L
g136
tp374
aV[11] lvl: 25 | 0/24:123450 0/31:450213 0/31:354021 0/29:021534 2/29:342105 5/34:423105 7/35:231045 0/1(1):045321 4/26:532014 0/1(1):421305 4/21:435201 5/20:520413 0/1(1):041532 0/1(2):045132 0/1(1):154032 0/1(2):325140 0/1(2):025134 0/1(1):325410 2/7:453120 0/1(1):403125 0/1(1):250431 0/1(1):431520 0/1(1):421035 0/1(1):210435 0/1(1):435120
p375
tp376
a(F518.9267618656158
L1370411L
(lp377
g3
ag5
ag7
ag9
ag289
ag347
a(L9L
L35L
L0L
g299
tp378
a(L7L
L26L
L0L
g91
tp379
a(L6L
L26L
L0L
V524103
p380
tp381
a(L0L
L1L
L1L
g186
tp382
a(L5L
L25L
L0L
g364
tp383
a(L0L
L1L
L1L
g372
tp384
a(L0L
L1L
L1L
V014253
p385
tp386
a(L0L
L1L
L1L
g192
tp387
a(L3L
L15L
L0L
g136
tp388
a(L0L
L1L
L3L
g301
tp389
a(L0L
L1L
L3L
g303
tp390
a(L0L
L1L
L2L
V420531
p391
tp392
a(L0L
L1L
L2L
V425031
p393
tp394
a(L0L
L1L
L2L
g30
tp395
a(L0L
L1L
L2L
g134
tp396
a(L0L
L1L
L1L
g167
tp397
a(L0L
L1L
L1L
g353
tp398
a(L0L
L1L
L2L
g355
tp399
a(L0L
L1L
L1L
V524013
p400
tp401
aV[12] lvl: 25 | 0/24:123450 0/31:450213 0/31:354021 0/29:021534 2/29:342105 5/34:423105 9/35:421305 7/26:421035 6/26:524103 0/1(1):124530 5/25:325410 0/1(1):210435 0/1(1):014253 0/1(1):021453 3/15:435120 0/1(3):314025 0/1(3):025134 0/1(2):420531 0/1(2):425031 0/1(2):250431 0/1(2):431520 0/1(1):532014 0/1(1):435201 0/1(2):520413 0/1(1):524013
p402
tp403
a(F622.5209548473358
L1627406L
(lp404
g3
ag5
ag7
ag9
ag289
a(L9L
L34L
L0L
g307
tp405
a(L12L
L33L
L0L
V150342
p406
tp407
a(L11L
L31L
L0L
V342510
p408
tp409
a(L22L
L30L
L0L
V234051
p410
tp411
a(L20L
L31L
L0L
V513240
p412
tp413
a(L17L
L27L
L0L
V132450
p414
tp415
a(L14L
L24L
L0L
V503124
p416
tp417
a(L0L
L1L
L1L
g257
tp418
a(L0L
L1L
L1L
V405312
p419
tp420
a(L8L
L12L
L0L
g242
tp421
a(L0L
L1L
L1L
g186
tp422
a(L0L
L1L
L1L
g261
tp423
a(L0L
L1L
L3L
g263
tp424
a(L0L
L1L
L3L
g38
tp425
a(L0L
L1L
L4L
g105
tp426
a(L0L
L1L
L4L
g268
tp427
a(L0L
L1L
L3L
g40
tp428
a(L0L
L1L
L3L
V103452
p429
tp430
a(L0L
L1L
L2L
V520143
p431
tp432
a(L0L
L1L
L1L
g355
tp433
aV[13] lvl: 25 | 0/24:123450 0/31:450213 0/31:354021 0/29:021534 2/29:342105 9/34:103542 12/33:150342 11/31:342510 22/30:234051 20/31:513240 17/27:132450 14/24:503124 0/1(1):340251 0/1(1):405312 8/12:340521 0/1(1):124530 0/1(1):531024 0/1(3):243150 0/1(3):152043 0/1(4):310254 0/1(4):310524 0/1(3):352104 0/1(3):103452 0/1(2):520143 0/1(1):520413
p434
tp435
a(F729.1686327457428
L1884968L
(lp436
g3
ag5
ag7
ag9
a(L3L
L29L
L0L
V421053
p437
tp438
a(L0L
L1L
L1L
g186
tp439
a(L10L
L32L
L0L
g406
tp440
a(L9L
L32L
L0L
g408
tp441
a(L0L
L1L
L1L
g261
tp442
a(L0L
L1L
L3L
g263
tp443
a(L0L
L1L
L2L
g105
tp444
a(L0L
L1L
L1L
V431052
p445
tp446
a(L10L
L18L
L0L
g410
tp447
a(L0L
L1L
L2L
g257
tp448
a(L0L
L1L
L1L
V405213
p449
tp450
a(L6L
L12L
L0L
g412
tp451
a(L0L
L1L
L1L
g414
tp452
a(L0L
L1L
L1L
g416
tp453
a(L5L
L11L
L0L
g419
tp454
a(L3L
L4L
L0L
g38
tp455
a(L0L
L1L
L3L
V435210
p456
tp457
a(L0L
L1L
L4L
g429
tp458
a(L0L
L1L
L3L
g307
tp459
a(L0L
L1L
L2L
g431
tp460
a(L0L
L1L
L1L
g355
tp461
aV[14] lvl: 25 | 0/24:123450 0/31:450213 0/31:354021 0/29:021534 3/29:421053 0/1(1):124530 10/32:150342 9/32:342510 0/1(1):531024 0/1(3):243150 0/1(2):310254 0/1(1):431052 10/18:234051 0/1(2):340251 0/1(1):405213 6/12:513240 0/1(1):132450 0/1(1):503124 5/11:405312 3/4:152043 0/1(3):435210 0/1(4):103452 0/1(3):103542 0/1(2):520143 0/1(1):520413
p462
tp463
a(F766.0242166519165
L1972245L
(lp464
g3
ag5
ag7
ag9
a(L4L
L29L
L0L
g173
tp465
a(L3L
L34L
L0L
g83
tp466
a(L12L
L33L
L0L
g50
tp467
a(L12L
L31L
L0L
V532041
p468
tp469
a(L11L
L32L
L0L
V413520
p470
tp471
a(L11L
L26L
L0L
V413250
p472
tp473
a(L0L
L1L
L2L
V132054
p474
tp475
a(L0L
L1L
L1L
g410
tp476
a(L0L
L1L
L1L
g449
tp477
a(L7L
L19L
L0L
g291
tp478
a(L0L
L1L
L1L
g141
tp479
a(L0L
L1L
L2L
g42
tp480
a(L0L
L1L
L1L
g456
tp481
a(L3L
L12L
L0L
g297
tp482
a(L0L
L1L
L3L
V402513
p483
tp484
a(L0L
L1L
L4L
V432510
p485
tp486
a(L0L
L1L
L3L
g22
tp487
a(L0L
L1L
L4L
V510243
p488
tp489
a(L0L
L1L
L3L
V510423
p490
tp491
a(L0L
L1L
L2L
g87
tp492
a(L0L
L1L
L1L
g85
tp493
aV[15] lvl: 25 | 0/24:123450 0/31:450213 0/31:354021 0/29:021534 4/29:210534 3/34:534120 12/33:053241 12/31:532041 11/32:413520 11/26:413250 0/1(2):132054 0/1(1):234051 0/1(1):405213 7/19:543120 0/1(1):543210 0/1(2):045321 0/1(1):435210 3/12:214053 0/1(3):402513 0/1(4):432510 0/1(3):451023 0/1(4):510243 0/1(3):510423 0/1(2):531240 0/1(1):531420
p494
tp495
a(F791.6575338840485
L2033067L
(lp496
g3
ag5
ag7
ag9
ag465
a(L4L
L34L
L0L
g175
tp497
a(L13L
L33L
L0L
g50
tp498
a(L21L
L29L
L0L
g150
tp499
a(L22L
L29L
L0L
g152
tp500
a(L20L
L30L
L0L
V203541
p501
tp502
a(L18L
L23L
L0L
g410
tp503
a(L0L
L1L
L1L
g257
tp504
a(L0L
L1L
L1L
g97
tp505
a(L0L
L1L
L1L
g188
tp506
a(L7L
L10L
L0L
g242
tp507
a(L0L
L1L
L1L
g99
tp508
a(L0L
L1L
L1L
g167
tp509
a(L0L
L1L
L2L
V432501
p510
tp511
a(L0L
L1L
L1L
g353
tp512
a(L2L
L4L
L0L
V532104
p513
tp514
a(L0L
L2L
L0L
g146
tp515
a(L0L
L1L
L4L
g132
tp516
a(L0L
L1L
L3L
g134
tp517
a(L0L
L1L
L2L
V502431
p518
tp519
a(L0L
L1L
L1L
V504231
p520
tp521
aV[16] lvl: 25 | 0/24:123450 0/31:450213 0/31:354021 0/29:021534 4/29:210534 4/34:412053 13/33:053241 21/29:234510 22/29:451203 20/30:203541 18/23:234051 0/1(1):340251 0/1(1):230451 0/1(1):230541 7/10:340521 0/1(1):053214 0/1(1):532014 0/1(2):432501 0/1(1):435201 2/4:532104 0/2:215043 0/1(4):431250 0/1(3):431520 0/1(2):502431 0/1(1):504231
p522
tp523
a(F856.4494819641113
L2185493L
(lp524
g3
ag5
ag7
ag9
ag465
a(L9L
L34L
L0L
g50
tp525
a(L9L
L31L
L0L
g468
tp526
a(L8L
L31L
L0L
g470
tp527
a(L8L
L28L
L0L
g315
tp528
a(L11L
L28L
L0L
V135420
p529
tp530
a(L0L
L1L
L1L
g317
tp531
a(L8L
L20L
L0L
g472
tp532
a(L0L
L1L
L2L
g474
tp533
a(L0L
L1L
L1L
g410
tp534
a(L0L
L1L
L1L
g449
tp535
a(L3L
L11L
L0L
g291
tp536
a(L0L
L1L
L2L
g132
tp537
a(L0L
L1L
L1L
g141
tp538
a(L0L
L1L
L1L
g42
tp539
a(L0L
L1L
L1L
g297
tp540
a(L0L
L1L
L3L
g483
tp541
a(L0L
L1L
L2L
g485
tp542
a(L0L
L1L
L1L
g22
tp543
a(L0L
L1L
L2L
g488
tp544
a(L0L
L1L
L1L
g490
tp545
aV[17] lvl: 25 | 0/24:123450 0/31:450213 0/31:354021 0/29:021534 4/29:210534 9/34:053241 9/31:532041 8/31:413520 8/28:134520 11/28:135420 0/1(1):135240 8/20:413250 0/1(2):132054 0/1(1):234051 0/1(1):405213 3/11:543120 0/1(2):431250 0/1(1):543210 0/1(1):045321 0/1(1):214053 0/1(3):402513 0/1(2):432510 0/1(1):451023 0/1(2):510243 0/1(1):510423
p546
tp547
a(F856.8537857532501
L2186417L
(lp548
g3
ag5
ag7
ag9
ag465
ag525
ag526
ag527
a(L11L
L28L
L0L
g472
tp549
a(L0L
L1L
L2L
g474
tp550
a(L0L
L1L
L1L
g410
tp551
a(L0L
L1L
L1L
g449
tp552
a(L7L
L20L
L0L
g291
tp553
a(L0L
L1L
L1L
g141
tp554
a(L0L
L1L
L1L
g42
tp555
a(L7L
L20L
L0L
g136
tp556
a(L0L
L1L
L3L
g132
tp557
a(L0L
L1L
L3L
g297
tp558
a(L0L
L1L
L5L
g483
tp559
a(L0L
L1L
L4L
g134
tp560
a(L0L
L1L
L3L
g485
tp561
a(L0L
L1L
L2L
g456
tp562
a(L0L
L1L
L1L
g22
tp563
a(L0L
L1L
L2L
g488
tp564
a(L0L
L1L
L1L
g490
tp565
aV[18] lvl: 25 | 0/24:123450 0/31:450213 0/31:354021 0/29:021534 4/29:210534 9/34:053241 9/31:532041 8/31:413520 11/28:413250 0/1(2):132054 0/1(1):234051 0/1(1):405213 7/20:543120 0/1(1):543210 0/1(1):045321 7/20:435120 0/1(3):431250 0/1(3):214053 0/1(5):402513 0/1(4):431520 0/1(3):432510 0/1(2):435210 0/1(1):451023 0/1(2):510243 0/1(1):510423
p566
tp567
a(F856.863728761673
L2186430L
(lp568
g3
ag5
ag7
ag9
ag465
ag525
ag526
ag527
ag549
ag550
ag551
ag552
ag553
ag554
ag555
a(L8L
L20L
L0L
g134
tp569
a(L0L
L1L
L1L
g132
tp570
a(L0L
L1L
L1L
g297
tp571
a(L0L
L1L
L1L
g483
tp572
a(L3L
L5L
L0L
g150
tp573
a(L0L
L1L
L0L
g22
tp574
a(L0L
L1L
L4L
V235140
p575
tp576
a(L0L
L1L
L3L
g181
tp577
a(L0L
L1L
L2L
g488
tp578
a(L0L
L1L
L1L
g490
tp579
aV[19] lvl: 25 | 0/24:123450 0/31:450213 0/31:354021 0/29:021534 4/29:210534 9/34:053241 9/31:532041 8/31:413520 11/28:413250 0/1(2):132054 0/1(1):234051 0/1(1):405213 7/20:543120 0/1(1):543210 0/1(1):045321 8/20:431520 0/1(1):431250 0/1(1):214053 0/1(1):402513 3/5:234510 0/1:451023 0/1(4):235140 0/1(3):235410 0/1(2):510243 0/1(1):510423
p580
tp581
a(F885.2829077243805
L2252041L
(lp582
g3
ag5
ag7
ag9
ag465
ag525
a(L19L
L31L
L0L
V345102
p583
tp584
a(L18L
L28L
L0L
g18
tp585
a(L20L
L27L
L0L
g16
tp586
a(L0L
L1L
L2L
V251403
p587
tp588
a(L0L
L1L
L1L
V254103
p589
tp590
a(L14L
L19L
L0L
V304512
p591
tp592
a(L12L
L17L
L0L
V451320
p593
tp594
a(L0L
L1L
L1L
V514320
p595
tp596
a(L0L
L1L
L3L
V014532
p597
tp598
a(L0L
L1L
L3L
g196
tp599
a(L0L
L1L
L5L
g297
tp600
a(L0L
L1L
L4L
g510
tp601
a(L0L
L1L
L3L
g353
tp602
a(L0L
L1L
L2L
g223
tp603
a(L0L
L1L
L1L
V523104
p604
tp605
a(L0L
L1L
L2L
V231054
p606
tp607
a(L0L
L1L
L1L
V231504
p608
tp609
a(L0L
L1L
L2L
g132
tp610
a(L0L
L1L
L1L
g134
tp611
aV[20] lvl: 25 | 0/24:123450 0/31:450213 0/31:354021 0/29:021534 4/29:210534 9/34:053241 19/31:345102 18/28:451302 20/27:451032 0/1(2):251403 0/1(1):254103 14/19:304512 12/17:451320 0/1(1):514320 0/1(3):014532 0/1(3):321045 0/1(5):214053 0/1(4):432501 0/1(3):435201 0/1(2):452130 0/1(1):523104 0/1(2):231054 0/1(1):231504 0/1(2):431250 0/1(1):431520
p612
tp613
a(F1225.830795764923
L3114140L
(lp614
g3
ag5
ag7
ag9
a(L8L
L29L
L0L
V502413
p615
tp616
a(L8L
L29L
L0L
V413052
p617
tp618
a(L7L
L25L
L0L
V304521
p619
tp620
a(L0L
L1L
L1L
g42
tp621
a(L4L
L27L
L0L
g429
tp622
a(L3L
L26L
L0L
g240
tp623
a(L4L
L27L
L0L
g317
tp624
a(L5L
L25L
L0L
V241035
p625
tp626
a(L0L
L1L
L1L
V520314
p627
tp628
a(L0L
L1L
L2L
g393
tp629
a(L0L
L1L
L2L
V024153
p630
tp631
a(L0L
L1L
L2L
g391
tp632
a(L0L
L1L
L4L
V120543
p633
tp634
a(L0L
L1L
L4L
V024513
p635
tp636
a(L0L
L1L
L4L
g372
tp637
a(L0L
L1L
L3L
g30
tp638
a(L0L
L1L
L2L
g253
tp639
a(L0L
L1L
L2L
g255
tp640
a(L0L
L1L
L2L
g257
tp641
a(L0L
L1L
L2L
V402531
p642
tp643
a(L0L
L1L
L1L
g225
tp644
aV[21] lvl: 25 | 0/24:123450 0/31:450213 0/31:354021 0/29:021534 8/29:502413 8/29:413052 7/25:304521 0/1(1):045321 4/27:103452 3/26:452013 4/27:135240 5/25:241035 0/1(1):520314 0/1(2):425031 0/1(2):024153 0/1(2):420531 0/1(4):120543 0/1(4):024513 0/1(4):210435 0/1(3):250431 0/1(2):450132 0/1(2):013425 0/1(2):340251 0/1(2):402531 0/1(1):452310
p645
tp646
a(F1380.3584640026093
L3511039L
(lp647
g3
ag5
ag7
ag9
a(L11L
L29L
L0L
g238
tp648
a(L10L
L26L
L0L
g240
tp649
a(L0L
L1L
L1L
g242
tp650
a(L12L
L26L
L0L
g99
tp651
a(L17L
L24L
L0L
g188
tp652
a(L0L
L1L
L1L
g474
tp653
a(L14L
L22L
L0L
g81
tp654
a(L15L
L17L
L0L
V305241
p655
tp656
a(L0L
L1L
L1L
g50
tp657
a(L12L
L14L
L0L
g625
tp658
a(L0L
L1L
L1L
g183
tp659
a(L0L
L1L
L1L
V204351
p660
tp661
a(L0L
L1L
L1L
g490
tp662
a(L0L
L1L
L2L
g608
tp663
a(L0L
L1L
L3L
V425310
p664
tp665
a(L0L
L1L
L3L
g301
tp666
a(L0L
L1L
L3L
g303
tp667
a(L0L
L1L
L3L
g12
tp668
a(L0L
L1L
L3L
g14
tp669
a(L0L
L1L
L2L
g132
tp670
a(L0L
L1L
L1L
g134
tp671
aV[22] lvl: 25 | 0/24:123450 0/31:450213 0/31:354021 0/29:021534 11/29:021345 10/26:452013 0/1(1):340521 12/26:053214 17/24:230541 0/1(1):132054 14/22:431205 15/17:305241 0/1(1):053241 12/14:241035 0/1(1):412035 0/1(1):204351 0/1(1):510423 0/1(2):231504 0/1(3):425310 0/1(3):314025 0/1(3):025134 0/1(3):425013 0/1(3):013245 0/1(2):431250 0/1(1):431520
p672
tp673
a(F1441.1629366874695
L3667420L
(lp674
g3
ag5
ag7
ag9
a(L13L
L29L
L0L
g150
tp675
a(L15L
L33L
L0L
g408
tp676
a(L21L
L34L
L0L
g209
tp677
a(L19L
L31L
L0L
g152
tp678
a(L19L
L27L
L0L
g410
tp679
a(L0L
L1L
L2L
g257
tp680
a(L0L
L1L
L1L
g449
tp681
a(L0L
L1L
L1L
g186
tp682
a(L0L
L1L
L1L
g261
tp683
a(L0L
L1L
L3L
g263
tp684
a(L0L
L1L
L4L
g105
tp685
a(L0L
L1L
L3L
g445
tp686
a(L0L
L1L
L2L
g132
tp687
a(L0L
L1L
L3L
g192
tp688
a(L0L
L1L
L2L
g630
tp689
a(L0L
L1L
L2L
g134
tp690
a(L0L
L1L
L1L
g468
tp691
a(L0L
L1L
L3L
g474
tp692
a(L0L
L1L
L3L
g472
tp693
a(L0L
L1L
L2L
g470
tp694
a(L0L
L1L
L1L
g81
tp695
aV[23] lvl: 25 | 0/24:123450 0/31:450213 0/31:354021 0/29:021534 13/29:234510 15/33:342510 21/34:452103 19/31:451203 19/27:234051 0/1(2):340251 0/1(1):405213 0/1(1):124530 0/1(1):531024 0/1(3):243150 0/1(4):310254 0/1(3):431052 0/1(2):431250 0/1(3):021453 0/1(2):024153 0/1(2):431520 0/1(1):532041 0/1(3):132054 0/1(3):413250 0/1(2):413520 0/1(1):431205
p696
tp697
a(F1539.2251768112183
L3911659L
(lp698
g3
ag5
ag7
ag9
a(L15L
L29L
L0L
g22
tp699
a(L21L
L34L
L0L
g410
tp700
a(L21L
L35L
L0L
g483
tp701
a(L20L
L29L
L0L
g449
tp702
a(L18L
L26L
L0L
g591
tp703
a(L17L
L29L
L0L
V512034
p704
tp705
a(L19L
L24L
L0L
g161
tp706
a(L0L
L1L
L2L
g163
tp707
a(L0L
L1L
L1L
g472
tp708
a(L10L
L17L
L0L
g470
tp709
a(L0L
L1L
L1L
g474
tp710
a(L10L
L13L
L0L
g141
tp711
a(L0L
L1L
L3L
g42
tp712
a(L0L
L1L
L2L
g485
tp713
a(L0L
L1L
L1L
g456
tp714
a(L4L
L8L
L0L
g297
tp715
a(L0L
L1L
L4L
g642
tp716
a(L0L
L1L
L4L
g146
tp717
a(L0L
L1L
L3L
V405231
p718
tp719
a(L0L
L1L
L2L
g87
tp720
a(L0L
L1L
L1L
g85
tp721
aV[24] lvl: 25 | 0/24:123450 0/31:450213 0/31:354021 0/29:021534 15/29:451023 21/34:234051 21/35:402513 20/29:405213 18/26:304512 17/29:512034 19/24:513204 0/1(2):041532 0/1(1):413250 10/17:413520 0/1(1):132054 10/13:543210 0/1(3):045321 0/1(2):432510 0/1(1):435210 4/8:214053 0/1(4):402531 0/1(4):215043 0/1(3):405231 0/1(2):531240 0/1(1):531420
p722
tp723
a(F1664.4966735839844
L4219682L
(lp724
g3
ag5
ag7
ag9
a(L20L
L29L
L0L
g188
tp725
a(L19L
L30L
L0L
g474
tp726
a(L26L
L28L
L0L
g186
tp727
a(L26L
L29L
L0L
g32
tp728
a(L23L
L27L
L0L
g301
tp729
a(L18L
L23L
L0L
g303
tp730
a(L15L
L18L
L0L
g12
tp731
a(L13L
L16L
L0L
g414
tp732
a(L10L
L14L
L0L
g28
tp733
a(L9L
L14L
L0L
g30
tp734
a(L9L
L11L
L0L
g36
tp735
a(L0L
L1L
L1L
g501
tp736
a(L0L
L1L
L2L
V103524
p737
tp738
a(L0L
L1L
L3L
g95
tp739
a(L0L
L1L
L4L
V140532
p740
tp741
a(L0L
L1L
L3L
V401352
p742
tp743
a(L0L
L1L
L2L
g718
tp744
a(L0L
L1L
L2L
V310452
p745
tp746
a(L0L
L1L
L3L
V104532
p747
tp748
a(L0L
L1L
L2L
g372
tp749
a(L0L
L1L
L1L
g34
tp750
aV[25] lvl: 25 | 0/24:123450 0/31:450213 0/31:354021 0/29:021534 20/29:230541 19/30:132054 26/28:124530 26/29:453102 23/27:314025 18/23:025134 15/18:425013 13/16:132450 10/14:450312 9/14:250431 9/11:503412 0/1(1):203541 0/1(2):103524 0/1(3):352140 0/1(4):140532 0/1(3):401352 0/1(2):405231 0/1(2):310452 0/1(3):104532 0/1(2):210435 0/1(1):503142
p751
tp752
a(F1849.5439496040344
L4677432L
(lp753
g3
ag5
ag7
a(L1L
L29L
L0L
g360
tp754
a(L2L
L36L
L0L
g111
tp755
a(L4L
L33L
L0L
g364
tp756
a(L3L
L31L
L0L
V253410
p757
tp758
a(L3L
L34L
L0L
V105324
p759
tp760
a(L0L
L1L
L1L
g186
tp761
a(L4L
L27L
L0L
g44
tp762
a(L0L
L1L
L1L
V024135
p763
tp764
a(L3L
L23L
L0L
V534210
p765
tp766
a(L0L
L1L
L1L
V504213
p767
tp768
a(L5L
L17L
L0L
V254310
p769
tp770
a(L9L
L18L
L0L
g367
tp771
a(L0L
L1L
L2L
g251
tp772
a(L0L
L1L
L1L
g30
tp773
a(L0L
L1L
L3L
g245
tp774
a(L0L
L1L
L2L
g134
tp775
a(L0L
L1L
L2L
V305142
p776
tp777
a(L0L
L1L
L4L
V420351
p778
tp779
a(L0L
L1L
L4L
g660
tp780
a(L0L
L1L
L3L
V513420
p781
tp782
a(L0L
L1L
L2L
g595
tp783
a(L0L
L1L
L1L
g355
tp784
aV[26] lvl: 25 | 0/24:123450 0/31:450213 0/31:354021 1/29:154032 2/36:325140 4/33:325410 3/31:253410 3/34:105324 0/1(1):124530 4/27:321405 0/1(1):024135 3/23:534210 0/1(1):504213 5/17:254310 9/18:403125 0/1(2):124503 0/1(1):250431 0/1(3):245310 0/1(2):431520 0/1(2):305142 0/1(4):420351 0/1(4):204351 0/1(3):513420 0/1(2):514320 0/1(1):520413
p785
tp786
a(F1869.9958627223969
L4727878L
(lp787
g3
ag5
ag7
ag754
ag755
ag756
a(L5L
L31L
L0L
g319
tp788
a(L4L
L30L
L0L
g245
tp789
a(L0L
L1L
L1L
g42
tp790
a(L0L
L1L
L1L
g44
tp791
a(L13L
L31L
L0L
g265
tp792
a(L11L
L28L
L0L
g263
tp793
a(L11L
L24L
L0L
g268
tp794
a(L0L
L1L
L1L
g50
tp795
a(L0L
L1L
L1L
V540312
p796
tp797
a(L4L
L11L
L0L
V401325
p798
tp799
a(L2L
L10L
L0L
V134250
p800
tp801
a(L0L
L1L
L2L
g14
tp802
a(L0L
L1L
L1L
g767
tp803
a(L0L
L1L
L1L
V305421
p804
tp805
a(L3L
L9L
L0L
g307
tp806
a(L0L
L1L
L3L
V105342
p807
tp808
a(L0L
L1L
L2L
g24
tp809
a(L0L
L1L
L1L
g313
tp810
a(L0L
L1L
L1L
g315
tp811
aV[27] lvl: 25 | 0/24:123450 0/31:450213 0/31:354021 1/29:154032 2/36:325140 4/33:325410 5/31:543102 4/30:245310 0/1(1):045321 0/1(1):321405 13/31:243510 11/28:243150 11/24:310524 0/1(1):053241 0/1(1):540312 4/11:401325 2/10:134250 0/1(2):013245 0/1(1):504213 0/1(1):305421 3/9:103542 0/1(3):105342 0/1(2):105432 0/1(1):420135 0/1(1):134520
p812
tp813
a(F1870.0032856464386
L4727885L
(lp814
g3
ag5
ag7
ag754
ag755
ag756
ag788
ag789
ag790
ag791
ag792
ag793
ag794
ag795
ag797
ag799
ag801
ag802
ag803
ag805
a(L6L
L9L
L0L
V305412
p815
tp816
a(L0L
L1L
L2L
V301542
p817
tp818
a(L0L
L1L
L2L
g776
tp819
a(L0L
L1L
L1L
g313
tp820
a(L0L
L1L
L1L
g315
tp821
aV[28] lvl: 25 | 0/24:123450 0/31:450213 0/31:354021 1/29:154032 2/36:325140 4/33:325410 5/31:543102 4/30:245310 0/1(1):045321 0/1(1):321405 13/31:243510 11/28:243150 11/24:310524 0/1(1):053241 0/1(1):540312 4/11:401325 2/10:134250 0/1(2):013245 0/1(1):504213 0/1(1):305421 6/9:305412 0/1(2):301542 0/1(2):305142 0/1(1):420135 0/1(1):134520
p822
tp823
a(F1880.7141177654266
L4753746L
(lp824
g3
ag5
ag7
ag754
ag755
ag756
ag788
a(L8L
L30L
L0L
g268
tp825
a(L0L
L1L
L1L
g50
tp826
a(L13L
L28L
L0L
g798
tp827
a(L12L
L28L
L0L
g800
tp828
a(L0L
L1L
L3L
g14
tp829
a(L0L
L1L
L2L
g767
tp830
a(L0L
L1L
L1L
g796
tp831
a(L12L
L19L
L0L
g804
tp832
a(L10L
L21L
L0L
g307
tp833
a(L0L
L1L
L3L
g807
tp834
a(L0L
L1L
L2L
g24
tp835
a(L0L
L1L
L1L
g313
tp836
a(L0L
L1L
L1L
g315
tp837
a(L3L
L6L
L0L
g291
tp838
a(L0L
L1L
L2L
g89
tp839
a(L0L
L1L
L1L
g141
tp840
a(L0L
L1L
L1L
g42
tp841
a(L0L
L1L
L1L
g44
tp842
aV[29] lvl: 25 | 0/24:123450 0/31:450213 0/31:354021 1/29:154032 2/36:325140 4/33:325410 5/31:543102 8/30:310524 0/1(1):053241 13/28:401325 12/28:134250 0/1(3):013245 0/1(2):504213 0/1(1):540312 12/19:305421 10/21:103542 0/1(3):105342 0/1(2):105432 0/1(1):420135 0/1(1):134520 3/6:543120 0/1(2):542310 0/1(1):543210 0/1(1):045321 0/1(1):321405
p843
tp844
a(F1880.7372138500214
L4753787L
(lp845
g3
ag5
ag7
ag754
ag755
ag756
ag788
ag825
ag826
ag827
ag828
ag829
ag830
ag831
ag832
a(L13L
L21L
L0L
g141
tp846
a(L0L
L1L
L2L
g42
tp847
a(L0L
L1L
L2L
g44
tp848
a(L0L
L1L
L1L
g89
tp849
a(L10L
L13L
L0L
g815
tp850
a(L0L
L1L
L3L
g817
tp851
a(L0L
L1L
L3L
g776
tp852
a(L0L
L1L
L2L
g313
tp853
a(L0L
L1L
L2L
g315
tp854
a(L0L
L1L
L1L
g291
tp855
aV[30] lvl: 25 | 0/24:123450 0/31:450213 0/31:354021 1/29:154032 2/36:325140 4/33:325410 5/31:543102 8/30:310524 0/1(1):053241 13/28:401325 12/28:134250 0/1(3):013245 0/1(2):504213 0/1(1):540312 12/19:305421 13/21:543210 0/1(2):045321 0/1(2):321405 0/1(1):542310 10/13:305412 0/1(3):301542 0/1(3):305142 0/1(2):420135 0/1(2):134520 0/1(1):543120
p856
tp857
a(F1897.3400325775146
L4794362L
(lp858
g3
ag5
ag7
ag754
ag755
ag756
a(L7L
L31L
L0L
V540132
p859
tp860
a(L10L
L34L
L0L
V015324
p861
tp862
a(L6L
L29L
L0L
g165
tp863
a(L8L
L26L
L0L
g468
tp864
a(L0L
L1L
L1L
g583
tp865
a(L9L
L21L
L0L
g796
tp866
a(L8L
L20L
L0L
g419
tp867
a(L9L
L18L
L0L
V403512
p868
tp869
a(L7L
L14L
L0L
V403152
p870
tp871
a(L0L
L1L
L1L
V204315
p872
tp873
a(L7L
L10L
L0L
g767
tp874
a(L4L
L8L
L0L
g804
tp875
a(L0L
L1L
L2L
V304251
p876
tp877
a(L0L
L1L
L2L
V103425
p878
tp879
a(L0L
L1L
L2L
g619
tp880
a(L0L
L1L
L2L
g42
tp881
a(L0L
L1L
L3L
g44
tp882
a(L0L
L1L
L2L
V501342
p883
tp884
a(L0L
L1L
L1L
g167
tp885
aV[31] lvl: 25 | 0/24:123450 0/31:450213 0/31:354021 1/29:154032 2/36:325140 4/33:325410 7/31:540132 10/34:015324 6/29:324105 8/26:532041 0/1(1):345102 9/21:540312 8/20:405312 9/18:403512 7/14:403152 0/1(1):204315 7/10:504213 4/8:305421 0/1(2):304251 0/1(2):103425 0/1(2):304521 0/1(2):045321 0/1(3):321405 0/1(2):501342 0/1(1):532014
p886
tp887
a(F1920.226538658142
L4849906L
(lp888
g3
ag5
ag7
ag754
ag755
ag756
a(L8L
L31L
L0L
g798
tp889
a(L9L
L34L
L0L
g800
tp890
a(L0L
L1L
L1L
g767
tp891
a(L10L
L27L
L0L
g14
tp892
a(L11L
L22L
L0L
g804
tp893
a(L10L
L26L
L0L
g307
tp894
a(L0L
L1L
L2L
g807
tp895
a(L0L
L1L
L1L
g24
tp896
a(L5L
L18L
L0L
g313
tp897
a(L0L
L1L
L1L
g315
tp898
a(L4L
L11L
L0L
g317
tp899
a(L0L
L1L
L3L
g26
tp900
a(L0L
L1L
L3L
g95
tp901
a(L0L
L1L
L3L
g99
tp902
a(L0L
L1L
L2L
g48
tp903
a(L0L
L1L
L2L
g50
tp904
a(L0L
L1L
L1L
g89
tp905
a(L0L
L1L
L2L
g608
tp906
a(L0L
L1L
L1L
V235104
p907
tp908
aV[32] lvl: 25 | 0/24:123450 0/31:450213 0/31:354021 1/29:154032 2/36:325140 4/33:325410 8/31:401325 9/34:134250 0/1(1):504213 10/27:013245 11/22:305421 10/26:103542 0/1(2):105342 0/1(1):105432 5/18:420135 0/1(1):134520 4/11:135240 0/1(3):012453 0/1(3):352140 0/1(3):053214 0/1(2):352410 0/1(2):053241 0/1(1):542310 0/1(2):231504 0/1(1):235104
p909
tp910
a(F1920.2977976799011
L4850058L
(lp911
g3
ag5
ag7
ag754
ag755
ag756
ag889
ag890
ag891
ag892
ag893
a(L14L
L26L
L0L
g89
tp912
a(L14L
L25L
L0L
g907
tp913
a(L0L
L1L
L2L
g26
tp914
a(L0L
L1L
L1L
g608
tp915
a(L10L
L14L
L0L
g815
tp916
a(L6L
L8L
L0L
g776
tp917
a(L3L
L4L
L0L
g817
tp918
a(L2L
L3L
L0L
g313
tp919
a(L0L
L1L
L2L
g315
tp920
a(L0L
L1L
L1L
g317
tp921
a(L0L
L1L
L2L
g95
tp922
a(L0L
L1L
L2L
g99
tp923
a(L0L
L1L
L1L
g48
tp924
a(L0L
L1L
L1L
g50
tp925
aV[33] lvl: 25 | 0/24:123450 0/31:450213 0/31:354021 1/29:154032 2/36:325140 4/33:325410 8/31:401325 9/34:134250 0/1(1):504213 10/27:013245 11/22:305421 14/26:542310 14/25:235104 0/1(2):012453 0/1(1):231504 10/14:305412 6/8:305142 3/4:301542 2/3:420135 0/1(2):134520 0/1(1):135240 0/1(2):352140 0/1(2):053214 0/1(1):352410 0/1(1):053241
p926
tp927
a(F1920.413741827011
L4850320L
(lp928
g3
ag5
ag7
ag754
ag755
ag756
ag889
ag890
ag891
ag892
a(L19L
L22L
L0L
g817
tp929
a(L16L
L22L
L0L
V420315
p930
tp931
a(L0L
L1L
L2L
g26
tp932
a(L0L
L1L
L2L
g872
tp933
a(L0L
L1L
L2L
g313
tp934
a(L0L
L1L
L1L
g520
tp935
a(L0L
L1L
L1L
g907
tp936
a(L0L
L1L
L2L
g136
tp937
a(L0L
L1L
L3L
V153420
p938
tp939
a(L0L
L1L
L2L
V154320
p940
tp941
a(L0L
L1L
L1L
g456
tp942
a(L0L
L1L
L2L
g95
tp943
a(L0L
L1L
L2L
g99
tp944
a(L0L
L1L
L1L
g48
tp945
a(L0L
L1L
L1L
g50
tp946
aV[34] lvl: 25 | 0/24:123450 0/31:450213 0/31:354021 1/29:154032 2/36:325140 4/33:325410 8/31:401325 9/34:134250 0/1(1):504213 10/27:013245 19/22:301542 16/22:420315 0/1(2):012453 0/1(2):204315 0/1(2):420135 0/1(1):504231 0/1(1):235104 0/1(2):435120 0/1(3):153420 0/1(2):154320 0/1(1):435210 0/1(2):352140 0/1(2):053214 0/1(1):352410 0/1(1):053241
p947
tp948
a(F2132.4445977211
L5369590L
(lp949
g3
ag5
ag7
ag754
a(L3L
L36L
L0L
g587
tp950
a(L6L
L34L
L0L
g364
tp951
a(L8L
L34L
L0L
g319
tp952
a(L7L
L33L
L0L
g245
tp953
a(L0L
L1L
L1L
g42
tp954
a(L0L
L1L
L1L
g297
tp955
a(L12L
L31L
L0L
g265
tp956
a(L0L
L1L
L1L
V413025
p957
tp958
a(L9L
L23L
L0L
g268
tp959
a(L0L
L1L
L2L
g50
tp960
a(L0L
L1L
L2L
g367
tp961
a(L0L
L1L
L2L
V350421
p962
tp963
a(L0L
L1L
L1L
g617
tp964
a(L0L
L1L
L1L
g804
tp965
a(L0L
L1L
L1L
g150
tp966
a(L0L
L1L
L2L
g815
tp967
a(L0L
L1L
L2L
g798
tp968
a(L0L
L1L
L2L
g817
tp969
a(L0L
L1L
L3L
V413205
p970
tp971
a(L0L
L1L
L2L
g313
tp972
a(L0L
L1L
L1L
g930
tp973
aV[35] lvl: 25 | 0/24:123450 0/31:450213 0/31:354021 1/29:154032 3/36:251403 6/34:325410 8/34:543102 7/33:245310 0/1(1):045321 0/1(1):214053 12/31:243510 0/1(1):413025 9/23:310524 0/1(2):053241 0/1(2):403125 0/1(2):350421 0/1(1):413052 0/1(1):305421 0/1(1):234510 0/1(2):305412 0/1(2):401325 0/1(2):301542 0/1(3):413205 0/1(2):420135 0/1(1):420315
p974
tp975
a(F2136.4228706359863
L5379034L
(lp976
g3
ag5
ag7
ag754
ag950
ag951
a(L9L
L34L
L0L
g957
tp977
a(L15L
L29L
L0L
g962
tp978
a(L13L
L30L
L0L
g406
tp979
a(L11L
L23L
L0L
V150432
p980
tp981
a(L11L
L25L
L0L
V251043
p982
tp983
a(L0L
L1L
L1L
V015243
p984
tp985
a(L13L
L19L
L0L
g815
tp986
a(L0L
L1L
L1L
g817
tp987
a(L0L
L1L
L1L
g970
tp988
a(L8L
L12L
L0L
g313
tp989
a(L0L
L1L
L1L
g315
tp990
a(L6L
L7L
L0L
g268
tp991
a(L0L
L1L
L2L
g50
tp992
a(L0L
L1L
L2L
V150324
p993
tp994
a(L0L
L1L
L2L
V032145
p995
tp996
a(L0L
L1L
L3L
g143
tp997
a(L0L
L1L
L2L
g297
tp998
a(L0L
L1L
L1L
g617
tp999
a(L0L
L1L
L1L
g804
tp1000
aV[36] lvl: 25 | 0/24:123450 0/31:450213 0/31:354021 1/29:154032 3/36:251403 6/34:325410 9/34:413025 15/29:350421 13/30:150342 11/23:150432 11/25:251043 0/1(1):015243 13/19:305412 0/1(1):301542 0/1(1):413205 8/12:420135 0/1(1):134520 6/7:310524 0/1(2):053241 0/1(2):150324 0/1(2):032145 0/1(3):210453 0/1(2):214053 0/1(1):413052 0/1(1):305421
p1001
tp1002
a(F2982.6279575824738
L7415454L
(lp1003
g3
ag5
ag7
a(L2L
L29L
L0L
V540321
p1004
tp1005
a(L0L
L1L
L1L
g186
tp1006
a(L1L
L34L
L0L
g194
tp1007
a(L1L
L32L
L0L
g253
tp1008
a(L3L
L34L
L0L
g883
tp1009
a(L7L
L30L
L0L
g28
tp1010
a(L11L
L29L
L0L
g740
tp1011
a(L10L
L27L
L0L
g419
tp1012
a(L6L
L22L
L0L
V120453
p1013
tp1014
a(L0L
L1L
L1L
g633
tp1015
a(L8L
L17L
L0L
g111
tp1016
a(L8L
L13L
L0L
g962
tp1017
a(L7L
L12L
L0L
V503421
p1018
tp1019
a(L0L
L1L
L1L
g408
tp1020
a(L0L
L1L
L1L
g261
tp1021
a(L0L
L1L
L2L
g105
tp1022
a(L0L
L1L
L1L
g445
tp1023
a(L1L
L2L
L0L
g763
tp1024
a(L0L
L1L
L2L
V135204
p1025
tp1026
a(L0L
L1L
L3L
g617
tp1027
a(L0L
L1L
L2L
g134
tp1028
a(L0L
L1L
L1L
g136
tp1029
aV[37] lvl: 25 | 0/24:123450 0/31:450213 0/31:354021 2/29:540321 0/1(1):124530 1/34:145032 1/32:450132 3/34:501342 7/30:450312 11/29:140532 10/27:405312 6/22:120453 0/1(1):120543 8/17:325140 8/13:350421 7/12:503421 0/1(1):342510 0/1(1):531024 0/1(2):310254 0/1(1):431052 1/2:024135 0/1(2):135204 0/1(3):413052 0/1(2):431520 0/1(1):435120
p1030
tp1031
a(F3144.3248398303986
L7804996L
(lp1032
g3
ag5
ag7
a(L3L
L29L
L0L
V403215
p1033
tp1034
a(L0L
L1L
L1L
g767
tp1035
a(L1L
L32L
L0L
g146
tp1036
a(L1L
L32L
L0L
g132
tp1037
a(L2L
L29L
L0L
g134
tp1038
a(L1L
L26L
L0L
V152403
p1039
tp1040
a(L0L
L1L
L1L
g95
tp1041
a(L0L
L1L
L1L
g186
tp1042
a(L0L
L1L
L1L
g48
tp1043
a(L1L
L22L
L0L
g868
tp1044
a(L3L
L15L
L0L
g742
tp1045
a(L8L
L16L
L0L
g804
tp1046
a(L0L
L1L
L1L
g619
tp1047
a(L0L
L1L
L1L
g22
tp1048
a(L0L
L1L
L1L
g32
tp1049
a(L0L
L1L
L1L
V042513
p1050
tp1051
a(L3L
L9L
L0L
g24
tp1052
a(L0L
L1L
L4L
V051432
p1053
tp1054
a(L0L
L1L
L4L
g635
tp1055
a(L0L
L1L
L3L
V054132
p1056
tp1057
a(L0L
L1L
L2L
g81
tp1058
a(L0L
L1L
L1L
V432015
p1059
tp1060
aV[38] lvl: 25 | 0/24:123450 0/31:450213 0/31:354021 3/29:403215 0/1(1):504213 1/32:215043 1/32:431250 2/29:431520 1/26:152403 0/1(1):352140 0/1(1):124530 0/1(1):352410 1/22:403512 3/15:401352 8/16:305421 0/1(1):304521 0/1(1):451023 0/1(1):453102 0/1(1):042513 3/9:105432 0/1(4):051432 0/1(4):024513 0/1(3):054132 0/1(2):431205 0/1(1):432015
p1061
tp1062
a(F3155.5937049388885
L7831643L
(lp1063
g3
ag5
ag7
ag1034
ag1035
ag1036
ag1037
a(L3L
L29L
L0L
g38
tp1064
a(L12L
L26L
L0L
g995
tp1065
a(L0L
L1L
L1L
g44
tp1066
a(L10L
L27L
L0L
V453201
p1067
tp1068
a(L0L
L1L
L1L
g615
tp1069
a(L10L
L27L
L0L
g10
tp1070
a(L9L
L27L
L0L
g529
tp1071
a(L0L
L1L
L2L
g315
tp1072
a(L0L
L1L
L1L
g46
tp1073
a(L3L
L12L
L0L
g12
tp1074
a(L0L
L1L
L1L
g259
tp1075
a(L2L
L7L
L0L
g143
tp1076
a(L0L
L1L
L2L
g22
tp1077
a(L0L
L1L
L2L
g62
tp1078
a(L0L
L1L
L2L
V403251
p1079
tp1080
a(L0L
L1L
L1L
g159
tp1081
a(L0L
L1L
L2L
V205341
p1082
tp1083
a(L0L
L1L
L1L
g177
tp1084
aV[39] lvl: 25 | 0/24:123450 0/31:450213 0/31:354021 3/29:403215 0/1(1):504213 1/32:215043 1/32:431250 3/29:152043 12/26:032145 0/1(1):321405 10/27:453201 0/1(1):502413 10/27:534201 9/27:135420 0/1(2):134520 0/1(1):140352 3/12:425013 0/1(1):420513 2/7:210453 0/1(2):451023 0/1(2):351402 0/1(2):403251 0/1(1):453120 0/1(2):205341 0/1(1):205431
p1085
tp1086
a(F3191.9278116226196
L7918313L
(lp1087
g3
ag5
ag7
ag1034
ag1035
ag1036
a(L7L
L32L
L0L
g406
tp1088
a(L6L
L30L
L0L
V425103
p1089
tp1090
a(L6L
L32L
L0L
g364
tp1091
a(L0L
L1L
L2L
g982
tp1092
a(L0L
L1L
L1L
g111
tp1093
a(L7L
L21L
L0L
g12
tp1094
a(L0L
L1L
L1L
g186
tp1095
a(L0L
L1L
L1L
g245
tp1096
a(L9L
L20L
L0L
g34
tp1097
a(L7L
L14L
L0L
V145203
p1098
tp1099
a(L0L
L1L
L3L
g815
tp1100
a(L0L
L1L
L3L
g804
tp1101
a(L0L
L1L
L2L
g970
tp1102
a(L0L
L1L
L1L
g240
tp1103
a(L1L
L2L
L0L
V132405
p1104
tp1105
a(L0L
L1L
L4L
g44
tp1106
a(L0L
L1L
L3L
g165
tp1107
a(L0L
L1L
L2L
V401532
p1108
tp1109
a(L0L
L1L
L1L
g87
tp1110
aV[40] lvl: 25 | 0/24:123450 0/31:450213 0/31:354021 3/29:403215 0/1(1):504213 1/32:215043 7/32:150342 6/30:425103 6/32:325410 0/1(2):251043 0/1(1):325140 7/21:425013 0/1(1):124530 0/1(1):245310 9/20:503142 7/14:145203 0/1(3):305412 0/1(3):305421 0/1(2):413205 0/1(1):452013 1/2:132405 0/1(4):321405 0/1(3):324105 0/1(2):401532 0/1(1):531240
p1111
tp1112
a(F3191.941520690918
L7918336L
(lp1113
g3
ag5
ag7
ag1034
ag1035
ag1036
ag1088
ag1090
ag1091
ag1092
ag1093
ag1094
ag1095
ag1096
a(L11L
L20L
L0L
g804
tp1114
a(L8L
L17L
L0L
g307
tp1115
a(L3L
L9L
L0L
g313
tp1116
a(L0L
L1L
L1L
g315
tp1117
a(L4L
L5L
L0L
g159
tp1118
a(L0L
L1L
L1L
g87
tp1119
a(L0L
L1L
L0L
V124053
p1120
tp1121
a(L0L
L1L
L4L
g44
tp1122
a(L0L
L1L
L3L
g165
tp1123
a(L0L
L1L
L2L
g1108
tp1124
a(L0L
L1L
L1L
V405132
p1125
tp1126
aV[41] lvl: 25 | 0/24:123450 0/31:450213 0/31:354021 3/29:403215 0/1(1):504213 1/32:215043 7/32:150342 6/30:425103 6/32:325410 0/1(2):251043 0/1(1):325140 7/21:425013 0/1(1):124530 0/1(1):245310 11/20:305421 8/17:103542 3/9:420135 0/1(1):134520 4/5:453120 0/1(1):531240 0/1:124053 0/1(4):321405 0/1(3):324105 0/1(2):401532 0/1(1):405132
p1127
tp1128
a(F3205.486583709717
L7950587L
(lp1129
g3
ag5
ag7
ag1034
ag1035
ag1036
a(L8L
L32L
L0L
g1018
tp1130
a(L14L
L32L
L0L
V503241
p1131
tp1132
a(L0L
L1L
L1L
g615
tp1133
a(L0L
L1L
L2L
g995
tp1134
a(L0L
L1L
L1L
g22
tp1135
a(L7L
L22L
L0L
g1067
tp1136
a(L6L
L22L
L0L
g940
tp1137
a(L0L
L1L
L2L
g1053
tp1138
a(L0L
L1L
L3L
g410
tp1139
a(L0L
L1L
L3L
V021435
p1140
tp1141
a(L0L
L1L
L3L
g591
tp1142
a(L0L
L1L
L3L
g510
tp1143
a(L0L
L1L
L2L
g353
tp1144
a(L0L
L1L
L1L
g704
tp1145
a(L0L
L2L
L0L
g297
tp1146
a(L0L
L1L
L4L
g642
tp1147
a(L0L
L1L
L3L
g718
tp1148
a(L0L
L1L
L2L
g87
tp1149
a(L0L
L1L
L1L
g85
tp1150
aV[42] lvl: 25 | 0/24:123450 0/31:450213 0/31:354021 3/29:403215 0/1(1):504213 1/32:215043 8/32:503421 14/32:503241 0/1(1):502413 0/1(2):032145 0/1(1):451023 7/22:453201 6/22:154320 0/1(2):051432 0/1(3):234051 0/1(3):021435 0/1(3):304512 0/1(3):432501 0/1(2):435201 0/1(1):512034 0/2:214053 0/1(4):402531 0/1(3):405231 0/1(2):531240 0/1(1):531420
p1151
tp1152
a(F3205.512834787369
L7950640L
(lp1153
g3
ag5
ag7
ag1034
ag1035
ag1036
ag1130
ag1132
ag1133
ag1134
ag1135
a(L11L
L22L
L0L
g297
tp1154
a(L0L
L1L
L4L
g1140
tp1155
a(L0L
L1L
L3L
g410
tp1156
a(L0L
L1L
L2L
g642
tp1157
a(L0L
L1L
L2L
g591
tp1158
a(L0L
L1L
L2L
g718
tp1159
a(L0L
L1L
L1L
g87
tp1160
a(L0L
L1L
L2L
g704
tp1161
a(L0L
L1L
L1L
g85
tp1162
a(L2L
L5L
L0L
g412
tp1163
a(L0L
L1L
L2L
g161
tp1164
a(L0L
L1L
L2L
g474
tp1165
a(L0L
L1L
L2L
g1053
tp1166
a(L0L
L1L
L1L
g781
tp1167
aV[43] lvl: 25 | 0/24:123450 0/31:450213 0/31:354021 3/29:403215 0/1(1):504213 1/32:215043 8/32:503421 14/32:503241 0/1(1):502413 0/1(2):032145 0/1(1):451023 11/22:214053 0/1(4):021435 0/1(3):234051 0/1(2):402531 0/1(2):304512 0/1(2):405231 0/1(1):531240 0/1(2):512034 0/1(1):531420 2/5:513240 0/1(2):513204 0/1(2):132054 0/1(2):051432 0/1(1):513420
p1168
tp1169
a(F3212.966223716736
L7968374L
(lp1170
g3
ag5
ag7
ag1034
ag1035
ag1036
a(L11L
L32L
L0L
g995
tp1171
a(L13L
L33L
L0L
g44
tp1172
a(L13L
L33L
L0L
g718
tp1173
a(L13L
L29L
L0L
V403521
p1174
tp1175
a(L0L
L1L
L1L
g615
tp1176
a(L11L
L24L
L0L
g740
tp1177
a(L11L
L22L
L0L
g87
tp1178
a(L12L
L18L
L0L
g22
tp1179
a(L9L
L15L
L0L
g62
tp1180
a(L0L
L1L
L2L
g642
tp1181
a(L0L
L1L
L1L
g1079
tp1182
a(L6L
L10L
L0L
g591
tp1183
a(L0L
L1L
L2L
g704
tp1184
a(L0L
L1L
L2L
V120534
p1185
tp1186
a(L0L
L1L
L2L
g161
tp1187
a(L0L
L1L
L4L
g474
tp1188
a(L0L
L1L
L3L
g472
tp1189
a(L0L
L1L
L2L
g470
tp1190
a(L0L
L1L
L1L
g85
tp1191
aV[44] lvl: 25 | 0/24:123450 0/31:450213 0/31:354021 3/29:403215 0/1(1):504213 1/32:215043 11/32:032145 13/33:321405 13/33:405231 13/29:403521 0/1(1):502413 11/24:140532 11/22:531240 12/18:451023 9/15:351402 0/1(2):402531 0/1(1):403251 6/10:304512 0/1(2):512034 0/1(2):120534 0/1(2):513204 0/1(4):132054 0/1(3):413250 0/1(2):413520 0/1(1):531420
p1192
tp1193
a(F3247.3369386196136
L8051337L
(lp1194
g3
ag5
ag7
ag1034
ag1035
a(L2L
L32L
L0L
g980
tp1195
a(L7L
L34L
L0L
g132
tp1196
a(L12L
L31L
L0L
g804
tp1197
a(L0L
L1L
L1L
g89
tp1198
a(L15L
L33L
L0L
g24
tp1199
a(L12L
L27L
L0L
g81
tp1200
a(L9L
L23L
L0L
g1013
tp1201
a(L0L
L1L
L1L
g186
tp1202
a(L0L
L1L
L1L
g261
tp1203
a(L0L
L1L
L2L
g105
tp1204
a(L0L
L1L
L2L
g150
tp1205
a(L0L
L1L
L1L
g268
tp1206
a(L2L
L5L
L0L
g152
tp1207
a(L1L
L3L
L0L
V120435
p1208
tp1209
a(L0L
L1L
L1L
g134
tp1210
a(L0L
L1L
L0L
g410
tp1211
a(L0L
L1L
L4L
g257
tp1212
a(L0L
L1L
L3L
g242
tp1213
a(L0L
L1L
L2L
g412
tp1214
a(L0L
L1L
L1L
g781
tp1215
aV[45] lvl: 25 | 0/24:123450 0/31:450213 0/31:354021 3/29:403215 0/1(1):504213 2/32:150432 7/34:431250 12/31:305421 0/1(1):542310 15/33:105432 12/27:431205 9/23:120453 0/1(1):124530 0/1(1):531024 0/1(2):310254 0/1(2):234510 0/1(1):310524 2/5:451203 1/3:120435 0/1(1):431520 0/1:234051 0/1(4):340251 0/1(3):340521 0/1(2):513240 0/1(1):513420
p1216
tp1217
a(F3486.277979850769
L8631969L
(lp1218
g3
ag5
ag7
a(L4L
L29L
L0L
g962
tp1219
a(L2L
L29L
L0L
g406
tp1220
a(L3L
L30L
L0L
g1089
tp1221
a(L9L
L31L
L0L
g883
tp1222
a(L13L
L29L
L0L
g34
tp1223
a(L13L
L28L
L0L
g36
tp1224
a(L15L
L22L
L0L
g22
tp1225
a(L15L
L18L
L0L
g186
tp1226
a(L0L
L1L
L2L
g984
tp1227
a(L0L
L1L
L1L
g18
tp1228
a(L8L
L20L
L0L
g192
tp1229
a(L0L
L1L
L4L
g630
tp1230
a(L0L
L1L
L4L
g445
tp1231
a(L0L
L1L
L4L
V310542
p1232
tp1233
a(L0L
L1L
L5L
g91
tp1234
a(L0L
L1L
L7L
g299
tp1235
a(L0L
L1L
L6L
g32
tp1236
a(L0L
L1L
L5L
V520431
p1237
tp1238
a(L0L
L1L
L4L
V524031
p1239
tp1240
a(L0L
L1L
L3L
g167
tp1241
a(L0L
L1L
L2L
g468
tp1242
a(L0L
L1L
L1L
g113
tp1243
aV[46] lvl: 25 | 0/24:123450 0/31:450213 0/31:354021 4/29:350421 2/29:150342 3/30:425103 9/31:501342 13/29:503142 13/28:503412 15/22:451023 15/18:124530 0/1(2):015243 0/1(1):451302 8/20:021453 0/1(4):024153 0/1(4):431052 0/1(4):310542 0/1(5):421035 0/1(7):421305 0/1(6):453102 0/1(5):520431 0/1(4):524031 0/1(3):532014 0/1(2):532041 0/1(1):532401
p1244
tp1245
a(F3490.489687681198
L8642259L
(lp1246
g3
ag5
ag7
ag1219
ag1220
ag1221
a(L17L
L31L
L0L
g22
tp1247
a(L22L
L25L
L0L
g186
tp1248
a(L0L
L1L
L2L
g984
tp1249
a(L0L
L1L
L1L
g18
tp1250
a(L13L
L25L
L0L
g192
tp1251
a(L0L
L1L
L3L
g630
tp1252
a(L0L
L1L
L2L
g32
tp1253
a(L0L
L1L
L3L
g445
tp1254
a(L0L
L1L
L2L
g1237
tp1255
a(L0L
L1L
L1L
g1239
tp1256
a(L9L
L14L
L0L
g167
tp1257
a(L0L
L1L
L3L
g1232
tp1258
a(L0L
L1L
L4L
g91
tp1259
a(L0L
L1L
L3L
g299
tp1260
a(L0L
L1L
L2L
g468
tp1261
a(L0L
L1L
L1L
g113
tp1262
a(L3L
L6L
L0L
g429
tp1263
a(L0L
L1L
L2L
g307
tp1264
a(L0L
L1L
L1L
g807
tp1265
aV[47] lvl: 25 | 0/24:123450 0/31:450213 0/31:354021 4/29:350421 2/29:150342 3/30:425103 17/31:451023 22/25:124530 0/1(2):015243 0/1(1):451302 13/25:021453 0/1(3):024153 0/1(2):453102 0/1(3):431052 0/1(2):520431 0/1(1):524031 9/14:532014 0/1(3):310542 0/1(4):421035 0/1(3):421305 0/1(2):532041 0/1(1):532401 3/6:103452 0/1(2):103542 0/1(1):105342
p1266
tp1267
a(F3491.8123116493225
L8645499L
(lp1268
g3
ag5
ag7
ag1219
ag1220
a(L4L
L30L
L0L
g12
tp1269
a(L3L
L32L
L0L
g14
tp1270
a(L3L
L26L
L0L
g18
tp1271
a(L2L
L23L
L0L
V302541
p1272
tp1273
a(L3L
L22L
L0L
g319
tp1274
a(L5L
L22L
L0L
g268
tp1275
a(L0L
L1L
L1L
g50
tp1276
a(L3L
L19L
L0L
g617
tp1277
a(L12L
L18L
L0L
V504321
p1278
tp1279
a(L0L
L1L
L2L
g42
tp1280
a(L0L
L1L
L2L
g297
tp1281
a(L0L
L1L
L4L
g24
tp1282
a(L0L
L1L
L4L
V142053
p1283
tp1284
a(L0L
L1L
L3L
g520
tp1285
a(L0L
L1L
L2L
g87
tp1286
a(L0L
L1L
L2L
V240351
p1287
tp1288
a(L0L
L1L
L2L
V142035
p1289
tp1290
a(L0L
L1L
L2L
g313
tp1291
a(L0L
L1L
L2L
g315
tp1292
a(L0L
L1L
L1L
g291
tp1293
aV[48] lvl: 25 | 0/24:123450 0/31:450213 0/31:354021 4/29:350421 2/29:150342 4/30:425013 3/32:013245 3/26:451302 2/23:302541 3/22:543102 5/22:310524 0/1(1):053241 3/19:413052 12/18:504321 0/1(2):045321 0/1(2):214053 0/1(4):105432 0/1(4):142053 0/1(3):504231 0/1(2):531240 0/1(2):240351 0/1(2):142035 0/1(2):420135 0/1(2):134520 0/1(1):543120
p1294
tp1295
a(F3497.757213830948
L8659904L
(lp1296
g3
ag5
ag7
ag1219
ag1220
ag1269
a(L4L
L32L
L0L
g414
tp1297
a(L2L
L29L
L0L
g995
tp1298
a(L4L
L30L
L0L
g143
tp1299
a(L7L
L29L
L0L
g297
tp1300
a(L0L
L1L
L1L
V012543
p1301
tp1302
a(L0L
L1L
L1L
g984
tp1303
a(L3L
L22L
L0L
V032415
p1304
tp1305
a(L0L
L1L
L1L
V241053
p1306
tp1307
a(L0L
L1L
L1L
g20
tp1308
a(L0L
L1L
L2L
V210354
p1309
tp1310
a(L0L
L1L
L2L
g817
tp1311
a(L0L
L1L
L2L
g313
tp1312
a(L0L
L1L
L2L
g315
tp1313
a(L0L
L1L
L1L
g299
tp1314
a(L1L
L2L
L0L
V014325
p1315
tp1316
a(L0L
L1L
L4L
g982
tp1317
a(L0L
L1L
L3L
g587
tp1318
a(L0L
L1L
L2L
V430251
p1319
tp1320
a(L0L
L1L
L1L
V432051
p1321
tp1322
aV[49] lvl: 25 | 0/24:123450 0/31:450213 0/31:354021 4/29:350421 2/29:150342 4/30:425013 4/32:132450 2/29:032145 4/30:210453 7/29:214053 0/1(1):012543 0/1(1):015243 3/22:032415 0/1(1):241053 0/1(1):342105 0/1(2):210354 0/1(2):301542 0/1(2):420135 0/1(2):134520 0/1(1):421305 1/2:014325 0/1(4):251043 0/1(3):251403 0/1(2):430251 0/1(1):432051
p1323
tp1324
a(F3498.6997187137604
L8662178L
(lp1325
g3
ag5
ag7
ag1219
ag1220
ag1269
ag1297
ag1298
a(L8L
L30L
L0L
g1304
tp1326
a(L8L
L26L
L0L
g1315
tp1327
a(L7L
L28L
L0L
g982
tp1328
a(L0L
L1L
L1L
g587
tp1329
a(L0L
L1L
L1L
g1301
tp1330
a(L0L
L1L
L2L
g984
tp1331
a(L0L
L1L
L1L
g817
tp1332
a(L0L
L1L
L1L
g313
tp1333
a(L0L
L1L
L1L
g315
tp1334
a(L3L
L13L
L0L
g1319
tp1335
a(L0L
L1L
L1L
g1321
tp1336
a(L3L
L6L
L0L
g445
tp1337
a(L0L
L1L
L3L
g1232
tp1338
a(L0L
L1L
L4L
g1309
tp1339
a(L0L
L1L
L3L
g299
tp1340
a(L0L
L1L
L2L
V431025
p1341
tp1342
a(L0L
L1L
L1L
g81
tp1343
aV[50] lvl: 25 | 0/24:123450 0/31:450213 0/31:354021 4/29:350421 2/29:150342 4/30:425013 4/32:132450 2/29:032145 8/30:032415 8/26:014325 7/28:251043 0/1(1):251403 0/1(1):012543 0/1(2):015243 0/1(1):301542 0/1(1):420135 0/1(1):134520 3/13:430251 0/1(1):432051 3/6:431052 0/1(3):310542 0/1(4):210354 0/1(3):421305 0/1(2):431025 0/1(1):431205
p1344
tp1345
a(F3624.8923478126526
L8977130L
(lp1346
g3
ag5
ag7
ag1219
ag1220
a(L7L
L30L
L0L
g36
tp1347
a(L9L
L32L
L0L
g1082
tp1348
a(L9L
L37L
L0L
V410253
p1349
tp1350
a(L0L
L1L
L1L
g984
tp1351
a(L0L
L1L
L1L
g20
tp1352
a(L0L
L1L
L1L
g22
tp1353
a(L9L
L29L
L0L
g50
tp1354
a(L16L
L29L
L0L
g763
tp1355
a(L0L
L1L
L1L
g1237
tp1356
a(L13L
L17L
L0L
V301452
p1357
tp1358
a(L0L
L1L
L2L
g597
tp1359
a(L0L
L1L
L5L
g817
tp1360
a(L0L
L1L
L4L
g776
tp1361
a(L0L
L1L
L3L
g196
tp1362
a(L0L
L1L
L2L
g44
tp1363
a(L0L
L1L
L1L
g1239
tp1364
a(L2L
L3L
L0L
g1053
tp1365
a(L0L
L1L
L1L
g1319
tp1366
a(L0L
L1L
L2L
g635
tp1367
a(L0L
L1L
L1L
V025413
p1368
tp1369
aV[51] lvl: 25 | 0/24:123450 0/31:450213 0/31:354021 4/29:350421 2/29:150342 7/30:503412 9/32:205341 9/37:410253 0/1(1):015243 0/1(1):342105 0/1(1):451023 9/29:053241 16/29:024135 0/1(1):520431 13/17:301452 0/1(2):014532 0/1(5):301542 0/1(4):305142 0/1(3):321045 0/1(2):321405 0/1(1):524031 2/3:051432 0/1(1):430251 0/1(2):024513 0/1(1):025413
p1370
tp1371
a(F4064.113558769226
L10199558L
(lp1372
g3
ag5
ag7
ag1219
a(L4L
L29L
L0L
g980
tp1373
a(L5L
L34L
L0L
V325104
p1374
tp1375
a(L16L
L27L
L0L
g410
tp1376
a(L0L
L1L
L2L
g257
tp1377
a(L0L
L1L
L1L
g781
tp1378
a(L12L
L27L
L0L
g412
tp1379
a(L11L
L24L
L0L
g414
tp1380
a(L0L
L1L
L1L
g416
tp1381
a(L6L
L19L
L0L
g419
tp1382
a(L0L
L1L
L2L
g85
tp1383
a(L0L
L1L
L1L
g83
tp1384
a(L4L
L14L
L0L
g1013
tp1385
a(L0L
L1L
L2L
g633
tp1386
a(L0L
L1L
L2L
g186
tp1387
a(L0L
L1L
L2L
g242
tp1388
a(L0L
L1L
L3L
g196
tp1389
a(L0L
L1L
L3L
g93
tp1390
a(L0L
L1L
L2L
V321054
p1391
tp1392
a(L0L
L1L
L1L
g261
tp1393
a(L0L
L1L
L2L
g105
tp1394
a(L0L
L1L
L1L
g268
tp1395
aV[52] lvl: 25 | 0/24:123450 0/31:450213 0/31:354021 4/29:350421 4/29:150432 5/34:325104 16/27:234051 0/1(2):340251 0/1(1):513420 12/27:513240 11/24:132450 0/1(1):503124 6/19:405312 0/1(2):531420 0/1(1):534120 4/14:120453 0/1(2):120543 0/1(2):124530 0/1(2):340521 0/1(3):321045 0/1(3):104352 0/1(2):321054 0/1(1):531024 0/1(2):310254 0/1(1):310524
p1396
tp1397
a(F4180.060194730759
L10517474L
(lp1398
g3
ag5
ag7
ag1219
ag1373
a(L11L
L34L
L0L
g132
tp1399
a(L11L
L31L
L0L
g251
tp1400
a(L11L
L29L
L0L
g202
tp1401
a(L9L
L28L
L0L
g1125
tp1402
a(L7L
L24L
L0L
V132045
p1403
tp1404
a(L0L
L1L
L2L
g186
tp1405
a(L0L
L1L
L1L
g817
tp1406
a(L0L
L1L
L1L
V051342
p1407
tp1408
a(L0L
L1L
L1L
g257
tp1409
a(L0L
L1L
L1L
g520
tp1410
a(L0L
L1L
L1L
g261
tp1411
a(L0L
L1L
L2L
g105
tp1412
a(L0L
L1L
L1L
g159
tp1413
a(L0L
L1L
L1L
g268
tp1414
a(L0L
L1L
L2L
g1232
tp1415
a(L0L
L1L
L2L
g238
tp1416
a(L0L
L1L
L2L
g242
tp1417
a(L0L
L1L
L1L
g930
tp1418
a(L0L
L1L
L1L
g38
tp1419
a(L0L
L1L
L1L
g136
tp1420
aV[53] lvl: 25 | 0/24:123450 0/31:450213 0/31:354021 4/29:350421 4/29:150432 11/34:431250 11/31:124503 11/29:501324 9/28:405132 7/24:132045 0/1(2):124530 0/1(1):301542 0/1(1):051342 0/1(1):340251 0/1(1):504231 0/1(1):531024 0/1(2):310254 0/1(1):453120 0/1(1):310524 0/1(2):310542 0/1(2):021345 0/1(2):340521 0/1(1):420315 0/1(1):152043 0/1(1):435120
p1421
tp1422
a(F4186.953536748886
L10535966L
(lp1423
g3
ag5
ag7
ag1219
ag1373
ag1399
a(L12L
L31L
L0L
g520
tp1424
a(L11L
L31L
L0L
g1232
tp1425
a(L15L
L34L
L0L
g24
tp1426
a(L12L
L28L
L0L
g81
tp1427
a(L16L
L24L
L0L
g150
tp1428
a(L14L
L21L
L0L
g152
tp1429
a(L13L
L20L
L0L
g1208
tp1430
a(L0L
L1L
L1L
g134
tp1431
a(L10L
L13L
L0L
g410
tp1432
a(L0L
L1L
L5L
g97
tp1433
a(L0L
L1L
L4L
g257
tp1434
a(L0L
L1L
L3L
g242
tp1435
a(L0L
L1L
L3L
g99
tp1436
a(L0L
L1L
L2L
g412
tp1437
a(L0L
L1L
L2L
g861
tp1438
a(L0L
L1L
L2L
g165
tp1439
a(L0L
L1L
L2L
g781
tp1440
a(L0L
L1L
L1L
g103
tp1441
a(L0L
L1L
L1L
g105
tp1442
aV[54] lvl: 25 | 0/24:123450 0/31:450213 0/31:354021 4/29:350421 4/29:150432 11/34:431250 12/31:504231 11/31:310542 15/34:105432 12/28:431205 16/24:234510 14/21:451203 13/20:120435 0/1(1):431520 10/13:234051 0/1(5):230451 0/1(4):340251 0/1(3):340521 0/1(3):053214 0/1(2):513240 0/1(2):015324 0/1(2):324105 0/1(2):513420 0/1(1):524310 0/1(1):310254
p1443
tp1444
a(F4325.839490652084
L10908440L
(lp1445
g3
ag5
ag7
ag1219
a(L5L
L29L
L0L
g1278
tp1446
a(L6L
L37L
L0L
g24
tp1447
a(L8L
L34L
L0L
g291
tp1448
a(L9L
L28L
L0L
g134
tp1449
a(L10L
L29L
L0L
V154203
p1450
tp1451
a(L0L
L1L
L2L
g150
tp1452
a(L0L
L1L
L2L
g313
tp1453
a(L0L
L1L
L1L
g132
tp1454
a(L0L
L1L
L1L
V203514
p1455
tp1456
a(L0L
L1L
L2L
g42
tp1457
a(L0L
L1L
L1L
g520
tp1458
a(L0L
L1L
L1L
g297
tp1459
a(L0L
L1L
L1L
g1283
tp1460
a(L4L
L6L
L0L
V032451
p1461
tp1462
a(L0L
L1L
L2L
g253
tp1463
a(L0L
L1L
L1L
g18
tp1464
a(L0L
L1L
L1L
g1272
tp1465
a(L0L
L1L
L1L
g319
tp1466
a(L0L
L1L
L1L
g268
tp1467
a(L0L
L1L
L2L
g50
tp1468
a(L0L
L1L
L1L
g617
tp1469
aV[55] lvl: 25 | 0/24:123450 0/31:450213 0/31:354021 4/29:350421 5/29:504321 6/37:105432 8/34:543120 9/28:431520 10/29:154203 0/1(2):234510 0/1(2):420135 0/1(1):431250 0/1(1):203514 0/1(2):045321 0/1(1):504231 0/1(1):214053 0/1(1):142053 4/6:032451 0/1(2):450132 0/1(1):451302 0/1(1):302541 0/1(1):543102 0/1(1):310524 0/1(2):053241 0/1(1):413052
p1470
tp1471
a(F4340.478538751602
L10947076L
(lp1472
g3
ag5
ag7
ag1219
ag1446
a(L9L
L37L
L0L
g42
tp1473
a(L8L
L37L
L0L
g297
tp1474
a(L10L
L37L
L0L
g301
tp1475
a(L14L
L32L
L0L
g167
tp1476
a(L17L
L30L
L0L
g520
tp1477
a(L14L
L23L
L0L
g150
tp1478
a(L0L
L1L
L1L
g97
tp1479
a(L0L
L1L
L1L
g223
tp1480
a(L8L
L14L
L0L
g161
tp1481
a(L0L
L1L
L1L
g163
tp1482
a(L0L
L1L
L2L
g1306
tp1483
a(L0L
L1L
L2L
g311
tp1484
a(L0L
L1L
L2L
g113
tp1485
a(L0L
L1L
L2L
g317
tp1486
a(L0L
L1L
L2L
g870
tp1487
a(L0L
L1L
L3L
g1450
tp1488
a(L0L
L1L
L3L
g1237
tp1489
a(L0L
L1L
L3L
g132
tp1490
a(L0L
L1L
L2L
V542013
p1491
tp1492
a(L0L
L1L
L1L
g319
tp1493
aV[56] lvl: 25 | 0/24:123450 0/31:450213 0/31:354021 4/29:350421 5/29:504321 9/37:045321 8/37:214053 10/37:314025 14/32:532014 17/30:504231 14/23:234510 0/1(1):230451 0/1(1):452130 8/14:513204 0/1(1):041532 0/1(2):241053 0/1(2):341025 0/1(2):532401 0/1(2):135240 0/1(2):403152 0/1(3):154203 0/1(3):520431 0/1(3):431250 0/1(2):542013 0/1(1):543102
p1494
tp1495
a(F4354.545387744904
L10984531L
(lp1496
g3
ag5
ag7
ag1219
ag1446
ag1473
a(L12L
L37L
L0L
g167
tp1497
a(L10L
L33L
L0L
g353
tp1498
a(L13L
L34L
L0L
g400
tp1499
a(L12L
L29L
L0L
g355
tp1500
a(L0L
L1L
L1L
g615
tp1501
a(L0L
L1L
L1L
g617
tp1502
a(L8L
L20L
L0L
g456
tp1503
a(L0L
L1L
L1L
g380
tp1504
a(L0L
L1L
L1L
g22
tp1505
a(L0L
L1L
L1L
g62
tp1506
a(L0L
L1L
L1L
g303
tp1507
a(L0L
L1L
L1L
V134205
p1508
tp1509
a(L0L
L1L
L1L
g642
tp1510
a(L0L
L1L
L1L
g984
tp1511
a(L0L
L1L
L5L
g445
tp1512
a(L0L
L1L
L4L
g1237
tp1513
a(L0L
L1L
L3L
g1239
tp1514
a(L0L
L1L
L2L
g85
tp1515
a(L0L
L1L
L1L
g83
tp1516
aV[57] lvl: 25 | 0/24:123450 0/31:450213 0/31:354021 4/29:350421 5/29:504321 9/37:045321 12/37:532014 10/33:435201 13/34:524013 12/29:520413 0/1(1):502413 0/1(1):413052 8/20:435210 0/1(1):524103 0/1(1):451023 0/1(1):351402 0/1(1):025134 0/1(1):134205 0/1(1):402531 0/1(1):015243 0/1(5):431052 0/1(4):520431 0/1(3):524031 0/1(2):531420 0/1(1):534120
p1517
tp1518
a(F4355.392009973526
L10986740L
(lp1519
g3
ag5
ag7
ag1219
ag1446
ag1473
ag1497
ag1498
a(L17L
L34L
L0L
g456
tp1520
a(L17L
L29L
L0L
g615
tp1521
a(L0L
L1L
L1L
g617
tp1522
a(L17L
L27L
L0L
g1368
tp1523
a(L0L
L1L
L2L
g630
tp1524
a(L0L
L1L
L2L
g635
tp1525
a(L0L
L1L
L1L
g22
tp1526
a(L0L
L1L
L1L
g62
tp1527
a(L0L
L1L
L1L
g303
tp1528
a(L0L
L1L
L1L
g1508
tp1529
a(L0L
L1L
L1L
g642
tp1530
a(L0L
L1L
L1L
g984
tp1531
a(L0L
L1L
L5L
g445
tp1532
a(L0L
L1L
L4L
g1237
tp1533
a(L0L
L1L
L3L
g1239
tp1534
a(L0L
L1L
L2L
g85
tp1535
a(L0L
L1L
L1L
g83
tp1536
aV[58] lvl: 25 | 0/24:123450 0/31:450213 0/31:354021 4/29:350421 5/29:504321 9/37:045321 12/37:532014 10/33:435201 17/34:435210 17/29:502413 0/1(1):413052 17/27:025413 0/1(2):024153 0/1(2):024513 0/1(1):451023 0/1(1):351402 0/1(1):025134 0/1(1):134205 0/1(1):402531 0/1(1):015243 0/1(5):431052 0/1(4):520431 0/1(3):524031 0/1(2):531420 0/1(1):534120
p1537
tp1538
a(F4592.278173923492
L11619900L
(lp1539
g3
ag5
ag7
ag1219
a(L7L
L29L
L0L
g615
tp1540
a(L7L
L29L
L0L
g617
tp1541
a(L10L
L27L
L0L
g1272
tp1542
a(L9L
L27L
L0L
V541032
p1543
tp1544
a(L9L
L24L
L0L
g759
tp1545
a(L0L
L1L
L1L
g99
tp1546
a(L10L
L21L
L0L
V410352
p1547
tp1548
a(L14L
L22L
L0L
g319
tp1549
a(L0L
L1L
L1L
g445
tp1550
a(L13L
L16L
L0L
g385
tp1551
a(L0L
L1L
L2L
g1283
tp1552
a(L0L
L1L
L1L
V310425
p1553
tp1554
a(L0L
L1L
L1L
g301
tp1555
a(L8L
L9L
L0L
g393
tp1556
a(L6L
L7L
L0L
V504312
p1557
tp1558
a(L0L
L1L
L3L
g633
tp1559
a(L0L
L1L
L3L
g134
tp1560
a(L0L
L1L
L2L
g136
tp1561
a(L0L
L1L
L1L
g190
tp1562
a(L0L
L1L
L2L
g472
tp1563
a(L0L
L1L
L1L
g470
tp1564
aV[59] lvl: 25 | 0/24:123450 0/31:450213 0/31:354021 4/29:350421 7/29:502413 7/29:413052 10/27:302541 9/27:541032 9/24:105324 0/1(1):053214 10/21:410352 14/22:543102 0/1(1):431052 13/16:014253 0/1(2):142053 0/1(1):310425 0/1(1):314025 8/9:425031 6/7:504312 0/1(3):120543 0/1(3):431520 0/1(2):435120 0/1(1):541320 0/1(2):413250 0/1(1):413520
p1565
tp1566
a(F4601.253169775009
L11643536L
(lp1567
g3
ag5
ag7
ag1219
ag1540
ag1541
a(L11L
L27L
L0L
g1368
tp1568
a(L8L
L28L
L0L
g970
tp1569
a(L8L
L29L
L0L
g1053
tp1570
a(L0L
L1L
L1L
g1407
tp1571
a(L4L
L21L
L0L
g982
tp1572
a(L0L
L1L
L2L
g587
tp1573
a(L0L
L1L
L1L
g589
tp1574
a(L8L
L17L
L0L
g630
tp1575
a(L0L
L1L
L2L
g993
tp1576
a(L0L
L1L
L2L
g995
tp1577
a(L0L
L1L
L1L
g817
tp1578
a(L0L
L1L
L2L
g1306
tp1579
a(L0L
L1L
L2L
g313
tp1580
a(L0L
L1L
L2L
g315
tp1581
a(L0L
L1L
L2L
g984
tp1582
a(L0L
L1L
L4L
g143
tp1583
a(L0L
L1L
L3L
g297
tp1584
a(L0L
L1L
L2L
V243105
p1585
tp1586
a(L0L
L1L
L1L
g28
tp1587
aV[60] lvl: 25 | 0/24:123450 0/31:450213 0/31:354021 4/29:350421 7/29:502413 7/29:413052 11/27:025413 8/28:413205 8/29:051432 0/1(1):051342 4/21:251043 0/1(2):251403 0/1(1):254103 8/17:024153 0/1(2):150324 0/1(2):032145 0/1(1):301542 0/1(2):241053 0/1(2):420135 0/1(2):134520 0/1(2):015243 0/1(4):210453 0/1(3):214053 0/1(2):243105 0/1(1):450312
p1588
tp1589
a(F4601.333057641983
L11643724L
(lp1590
g3
ag5
ag7
ag1219
ag1540
ag1541
ag1568
ag1569
ag1570
ag1571
a(L11L
L21L
L0L
g630
tp1591
a(L0L
L1L
L2L
g993
tp1592
a(L0L
L1L
L2L
g995
tp1593
a(L0L
L1L
L1L
g817
tp1594
a(L5L
L17L
L0L
g1306
tp1595
a(L8L
L19L
L0L
g28
tp1596
a(L8L
L14L
L0L
g143
tp1597
a(L0L
L1L
L1L
g297
tp1598
a(L4L
L8L
L0L
g22
tp1599
a(L0L
L1L
L1L
g984
tp1600
a(L0L
L1L
L1L
g1585
tp1601
a(L0L
L3L
L0L
g313
tp1602
a(L0L
L1L
L1L
g315
tp1603
a(L0L
L1L
L2L
g152
tp1604
a(L0L
L1L
L1L
g209
tp1605
aV[61] lvl: 25 | 0/24:123450 0/31:450213 0/31:354021 4/29:350421 7/29:502413 7/29:413052 11/27:025413 8/28:413205 8/29:051432 0/1(1):051342 11/21:024153 0/1(2):150324 0/1(2):032145 0/1(1):301542 5/17:241053 8/19:450312 8/14:210453 0/1(1):214053 4/8:451023 0/1(1):015243 0/1(1):243105 0/3:420135 0/1(1):134520 0/1(2):451203 0/1(1):452103
p1606
tp1607
a(F4666.7071397304535
L11812004L
(lp1608
g3
ag5
ag7
ag1219
ag1540
a(L10L
L29L
L0L
g1368
tp1609
a(L7L
L30L
L0L
g970
tp1610
a(L7L
L30L
L0L
g1053
tp1611
a(L0L
L1L
L1L
g1407
tp1612
a(L14L
L22L
L0L
g22
tp1613
a(L10L
L18L
L0L
g488
tp1614
a(L13L
L15L
L0L
g385
tp1615
a(L10L
L13L
L0L
g391
tp1616
a(L0L
L1L
L2L
g1082
tp1617
a(L0L
L1L
L2L
g20
tp1618
a(L0L
L1L
L1L
g393
tp1619
a(L0L
L1L
L1L
g251
tp1620
a(L0L
L1L
L1L
g995
tp1621
a(L0L
L1L
L3L
g196
tp1622
a(L0L
L1L
L2L
g44
tp1623
a(L0L
L1L
L2L
g46
tp1624
a(L0L
L1L
L1L
g1067
tp1625
a(L0L
L6L
L0L
g307
tp1626
a(L0L
L1L
L2L
g429
tp1627
a(L0L
L1L
L1L
g93
tp1628
aV[62] lvl: 25 | 0/24:123450 0/31:450213 0/31:354021 4/29:350421 7/29:502413 10/29:025413 7/30:413205 7/30:051432 0/1(1):051342 14/22:451023 10/18:510243 13/15:014253 10/13:420531 0/1(2):205341 0/1(2):342105 0/1(1):425031 0/1(1):124503 0/1(1):032145 0/1(3):321045 0/1(2):321405 0/1(2):140352 0/1(1):453201 0/6:103542 0/1(2):103452 0/1(1):104352
p1629
tp1630
a(F4666.7129118442535
L11812009L
(lp1631
g3
ag5
ag7
ag1219
ag1540
ag1609
ag1610
ag1611
ag1612
ag1613
ag1614
ag1615
ag1616
ag1617
ag1618
ag1619
ag1620
ag1621
ag1622
ag1623
ag1624
ag1625
a(L3L
L6L
L0L
g742
tp1632
a(L0L
L1L
L2L
g870
tp1633
a(L0L
L1L
L1L
g868
tp1634
aV[63] lvl: 25 | 0/24:123450 0/31:450213 0/31:354021 4/29:350421 7/29:502413 10/29:025413 7/30:413205 7/30:051432 0/1(1):051342 14/22:451023 10/18:510243 13/15:014253 10/13:420531 0/1(2):205341 0/1(2):342105 0/1(1):425031 0/1(1):124503 0/1(1):032145 0/1(3):321045 0/1(2):321405 0/1(2):140352 0/1(1):453201 3/6:401352 0/1(2):403152 0/1(1):403512
p1635
tp1636
a(F4703.139024734497
L11906718L
(lp1637
g3
ag5
ag7
ag1219
ag1540
a(L13L
L29L
L0L
g1140
tp1638
a(L12L
L30L
L0L
g40
tp1639
a(L0L
L1L
L2L
g42
tp1640
a(L0L
L1L
L1L
g410
tp1641
a(L8L
L29L
L0L
g297
tp1642
a(L8L
L26L
L0L
g87
tp1643
a(L0L
L1L
L1L
g22
tp1644
a(L0L
L1L
L2L
g60
tp1645
a(L0L
L1L
L3L
V043251
p1646
tp1647
a(L0L
L1L
L2L
g488
tp1648
a(L0L
L1L
L1L
g85
tp1649
a(L5L
L12L
L0L
V143205
p1650
tp1651
a(L0L
L1L
L3L
g1391
tp1652
a(L0L
L1L
L3L
g173
tp1653
a(L0L
L1L
L5L
g412
tp1654
a(L0L
L1L
L5L
g781
tp1655
a(L0L
L1L
L4L
V532410
p1656
tp1657
a(L0L
L1L
L3L
g83
tp1658
a(L0L
L1L
L2L
g190
tp1659
a(L0L
L1L
L1L
g291
tp1660
aV[64] lvl: 25 | 0/24:123450 0/31:450213 0/31:354021 4/29:350421 7/29:502413 13/29:021435 12/30:352104 0/1(2):045321 0/1(1):234051 8/29:214053 8/26:531240 0/1(1):451023 0/1(2):351042 0/1(3):043251 0/1(2):510243 0/1(1):531420 5/12:143205 0/1(3):321054 0/1(3):210534 0/1(5):513240 0/1(5):513420 0/1(4):532410 0/1(3):534120 0/1(2):541320 0/1(1):543120
p1661
tp1662
a(F4703.230431556702
L11906934L
(lp1663
g3
ag5
ag7
ag1219
ag1540
ag1638
ag1639
ag1640
ag1641
ag1642
a(L17L
L26L
L0L
g22
tp1664
a(L0L
L1L
L1L
g60
tp1665
a(L0L
L1L
L2L
g1646
tp1666
a(L0L
L1L
L1L
g488
tp1667
a(L10L
L18L
L0L
g1650
tp1668
a(L0L
L1L
L2L
g1391
tp1669
a(L0L
L1L
L2L
g173
tp1670
a(L0L
L1L
L3L
g412
tp1671
a(L0L
L1L
L3L
g781
tp1672
a(L0L
L1L
L2L
g1656
tp1673
a(L0L
L1L
L1L
g190
tp1674
a(L0L
L1L
L1L
g291
tp1675
a(L2L
L6L
L0L
g136
tp1676
a(L0L
L1L
L2L
g132
tp1677
a(L0L
L1L
L1L
g134
tp1678
aV[65] lvl: 25 | 0/24:123450 0/31:450213 0/31:354021 4/29:350421 7/29:502413 13/29:021435 12/30:352104 0/1(2):045321 0/1(1):234051 8/29:214053 17/26:451023 0/1(1):351042 0/1(2):043251 0/1(1):510243 10/18:143205 0/1(2):321054 0/1(2):210534 0/1(3):513240 0/1(3):513420 0/1(2):532410 0/1(1):541320 0/1(1):543120 2/6:435120 0/1(2):431250 0/1(1):431520
p1679
tp1680
a(F4731.980974674225
L11979763L
(lp1681
g3
ag5
ag7
ag1219
ag1540
a(L17L
L29L
L0L
g22
tp1682
a(L27L
L31L
L0L
g817
tp1683
a(L27L
L36L
L0L
V542031
p1684
tp1685
a(L26L
L32L
L0L
g313
tp1686
a(L24L
L29L
L0L
g355
tp1687
a(L18L
L22L
L0L
g472
tp1688
a(L0L
L1L
L1L
g1315
tp1689
a(L0L
L1L
L1L
g255
tp1690
a(L11L
L13L
L0L
g984
tp1691
a(L10L
L13L
L0L
g1237
tp1692
a(L0L
L1L
L1L
g1239
tp1693
a(L0L
L1L
L1L
g1120
tp1694
a(L0L
L1L
L2L
g99
tp1695
a(L0L
L1L
L1L
g1656
tp1696
a(L2L
L6L
L0L
g196
tp1697
a(L0L
L1L
L2L
g1306
tp1698
a(L0L
L1L
L4L
g44
tp1699
a(L0L
L1L
L3L
g20
tp1700
a(L0L
L1L
L2L
g1349
tp1701
a(L0L
L1L
L1L
g83
tp1702
aV[66] lvl: 25 | 0/24:123450 0/31:450213 0/31:354021 4/29:350421 7/29:502413 17/29:451023 27/31:301542 27/36:542031 26/32:420135 24/29:520413 18/22:413250 0/1(1):014325 0/1(1):013425 11/13:015243 10/13:520431 0/1(1):524031 0/1(1):124053 0/1(2):053214 0/1(1):532410 2/6:321045 0/1(2):241053 0/1(4):321405 0/1(3):342105 0/1(2):410253 0/1(1):534120
p1703
tp1704
a(F4759.14729475975
L12051977L
(lp1705
g3
ag5
ag7
ag1219
a(L8L
L29L
L0L
g763
tp1706
a(L7L
L32L
L0L
g1025
tp1707
a(L6L
L29L
L0L
g134
tp1708
a(L9L
L29L
L0L
g136
tp1709
a(L6L
L21L
L0L
g40
tp1710
a(L4L
L19L
L0L
g747
tp1711
a(L0L
L1L
L1L
g186
tp1712
a(L0L
L1L
L1L
g261
tp1713
a(L0L
L1L
L1L
g105
tp1714
a(L0L
L1L
L1L
g757
tp1715
a(L0L
L1L
L1L
g20
tp1716
a(L0L
L1L
L1L
g24
tp1717
a(L5L
L9L
L0L
g385
tp1718
a(L0L
L1L
L4L
g759
tp1719
a(L0L
L1L
L4L
g1553
tp1720
a(L0L
L1L
L3L
g301
tp1721
a(L0L
L1L
L2L
g44
tp1722
a(L0L
L1L
L1L
g393
tp1723
a(L0L
L1L
L1L
g251
tp1724
a(L0L
L1L
L1L
g253
tp1725
a(L0L
L1L
L1L
g883
tp1726
aV[67] lvl: 25 | 0/24:123450 0/31:450213 0/31:354021 4/29:350421 8/29:024135 7/32:135204 6/29:431520 9/29:435120 6/21:352104 4/19:104532 0/1(1):124530 0/1(1):531024 0/1(1):310254 0/1(1):253410 0/1(1):342105 0/1(1):105432 5/9:014253 0/1(4):105324 0/1(4):310425 0/1(3):314025 0/1(2):321405 0/1(1):425031 0/1(1):124503 0/1(1):450132 0/1(1):501342
p1727
tp1728
a(F4780.574507713318
L12108600L
(lp1729
g3
ag5
ag7
ag1219
ag1706
a(L8L
L32L
L0L
g355
tp1730
a(L12L
L32L
L0L
g400
tp1731
a(L0L
L1L
L1L
g186
tp1732
a(L7L
L28L
L0L
g414
tp1733
a(L7L
L25L
L0L
g416
tp1734
a(L0L
L1L
L1L
g261
tp1735
a(L6L
L26L
L0L
V240531
p1736
tp1737
a(L6L
L25L
L0L
g85
tp1738
a(L0L
L1L
L1L
g301
tp1739
a(L0L
L1L
L1L
g105
tp1740
a(L0L
L1L
L1L
g757
tp1741
a(L0L
L1L
L1L
g83
tp1742
a(L7L
L12L
L0L
g1140
tp1743
a(L0L
L1L
L3L
g238
tp1744
a(L0L
L1L
L4L
g245
tp1745
a(L0L
L1L
L5L
g1553
tp1746
a(L0L
L1L
L4L
g20
tp1747
a(L0L
L1L
L3L
V520134
p1748
tp1749
a(L0L
L1L
L2L
g431
tp1750
a(L0L
L1L
L1L
V531204
p1751
tp1752
aV[68] lvl: 25 | 0/24:123450 0/31:450213 0/31:354021 4/29:350421 8/29:024135 8/32:520413 12/32:524013 0/1(1):124530 7/28:132450 7/25:503124 0/1(1):531024 6/26:240531 6/25:531420 0/1(1):314025 0/1(1):310254 0/1(1):253410 0/1(1):534120 7/12:021435 0/1(3):021345 0/1(4):245310 0/1(5):310425 0/1(4):342105 0/1(3):520134 0/1(2):520143 0/1(1):531204
p1753
tp1754
a(F4842.02968287468
L12269708L
(lp1755
g3
ag5
ag7
ag1219
ag1706
a(L12L
L32L
L0L
g1547
tp1756
a(L13L
L29L
L0L
g617
tp1757
a(L13L
L24L
L0L
g22
tp1758
a(L15L
L23L
L0L
g1357
tp1759
a(L14L
L26L
L0L
g627
tp1760
a(L0L
L1L
L1L
g1748
tp1761
a(L15L
L23L
L0L
g12
tp1762
a(L11L
L21L
L0L
g14
tp1763
a(L0L
L1L
L1L
g597
tp1764
a(L8L
L15L
L0L
g16
tp1765
a(L0L
L1L
L1L
g18
tp1766
a(L7L
L9L
L0L
g984
tp1767
a(L0L
L1L
L1L
g445
tp1768
a(L0L
L1L
L1L
V234105
p1769
tp1770
a(L0L
L1L
L3L
g50
tp1771
a(L0L
L1L
L2L
g1349
tp1772
a(L0L
L1L
L3L
g1237
tp1773
a(L0L
L1L
L3L
g633
tp1774
a(L0L
L1L
L2L
g1239
tp1775
a(L0L
L1L
L1L
g83
tp1776
aV[69] lvl: 25 | 0/24:123450 0/31:450213 0/31:354021 4/29:350421 8/29:024135 12/32:410352 13/29:413052 13/24:451023 15/23:301452 14/26:520314 0/1(1):520134 15/23:425013 11/21:013245 0/1(1):014532 8/15:451032 0/1(1):451302 7/9:015243 0/1(1):431052 0/1(1):234105 0/1(3):053241 0/1(2):410253 0/1(3):520431 0/1(3):120543 0/1(2):524031 0/1(1):534120
p1777
tp1778
a(F4879.12461066246
L12365267L
(lp1779
g3
ag5
ag7
ag1219
ag1706
a(L14L
L32L
L0L
g1140
tp1780
a(L10L
L29L
L0L
g40
tp1781
a(L0L
L1L
L1L
g410
tp1782
a(L8L
L31L
L0L
g42
tp1783
a(L6L
L27L
L0L
g297
tp1784
a(L6L
L24L
L0L
g87
tp1785
a(L0L
L1L
L1L
g22
tp1786
a(L0L
L1L
L1L
g488
tp1787
a(L0L
L1L
L1L
g60
tp1788
a(L0L
L1L
L3L
g1646
tp1789
a(L0L
L1L
L2L
V051324
p1790
tp1791
a(L0L
L1L
L2L
g781
tp1792
a(L0L
L1L
L2L
g1650
tp1793
a(L0L
L1L
L4L
g1056
tp1794
a(L0L
L1L
L3L
g1391
tp1795
a(L0L
L1L
L3L
g173
tp1796
a(L0L
L1L
L4L
g50
tp1797
a(L0L
L1L
L3L
g85
tp1798
a(L0L
L1L
L2L
g83
tp1799
a(L0L
L1L
L1L
g291
tp1800
aV[70] lvl: 25 | 0/24:123450 0/31:450213 0/31:354021 4/29:350421 8/29:024135 14/32:021435 10/29:352104 0/1(1):234051 8/31:045321 6/27:214053 6/24:531240 0/1(1):451023 0/1(1):510243 0/1(1):351042 0/1(3):043251 0/1(2):051324 0/1(2):513420 0/1(2):143205 0/1(4):054132 0/1(3):321054 0/1(3):210534 0/1(4):053241 0/1(3):531420 0/1(2):534120 0/1(1):543120
p1801
tp1802
a(F4879.214668750763
L12365470L
(lp1803
g3
ag5
ag7
ag1219
ag1706
ag1780
ag1781
ag1782
ag1783
ag1784
a(L15L
L24L
L0L
g22
tp1804
a(L12L
L22L
L0L
g60
tp1805
a(L0L
L1L
L3L
g1646
tp1806
a(L0L
L1L
L2L
g1790
tp1807
a(L0L
L1L
L2L
g488
tp1808
a(L0L
L1L
L1L
g781
tp1809
a(L0L
L1L
L1L
g1650
tp1810
a(L0L
L1L
L3L
g1056
tp1811
a(L0L
L1L
L2L
g1391
tp1812
a(L0L
L1L
L2L
g173
tp1813
a(L0L
L1L
L2L
g50
tp1814
a(L0L
L1L
L1L
g291
tp1815
a(L2L
L6L
L0L
g136
tp1816
a(L0L
L1L
L2L
g132
tp1817
a(L0L
L1L
L1L
g134
tp1818
aV[71] lvl: 25 | 0/24:123450 0/31:450213 0/31:354021 4/29:350421 8/29:024135 14/32:021435 10/29:352104 0/1(1):234051 8/31:045321 6/27:214053 15/24:451023 12/22:351042 0/1(3):043251 0/1(2):051324 0/1(2):510243 0/1(1):513420 0/1(1):143205 0/1(3):054132 0/1(2):321054 0/1(2):210534 0/1(2):053241 0/1(1):543120 2/6:435120 0/1(2):431250 0/1(1):431520
p1819
tp1820
a(F4883.745096921921
L12377021L
(lp1821
g3
ag5
ag7
ag1219
ag1706
ag1780
a(L13L
L29L
L0L
g238
tp1822
a(L11L
L24L
L0L
g1748
tp1823
a(L10L
L24L
L0L
g12
tp1824
a(L5L
L21L
L0L
g14
tp1825
a(L4L
L18L
L0L
g16
tp1826
a(L0L
L1L
L1L
g18
tp1827
a(L0L
L1L
L1L
g22
tp1828
a(L5L
L11L
L0L
g488
tp1829
a(L6L
L9L
L0L
g245
tp1830
a(L0L
L1L
L1L
g42
tp1831
a(L0L
L1L
L1L
g297
tp1832
a(L1L
L5L
L0L
g87
tp1833
a(L0L
L1L
L2L
g1751
tp1834
a(L0L
L1L
L2L
g633
tp1835
a(L0L
L1L
L2L
g1391
tp1836
a(L0L
L1L
L2L
g173
tp1837
a(L0L
L1L
L3L
g50
tp1838
a(L0L
L1L
L2L
g85
tp1839
a(L0L
L1L
L1L
g83
tp1840
aV[72] lvl: 25 | 0/24:123450 0/31:450213 0/31:354021 4/29:350421 8/29:024135 14/32:021435 13/29:021345 11/24:520134 10/24:425013 5/21:013245 4/18:451032 0/1(1):451302 0/1(1):451023 5/11:510243 6/9:245310 0/1(1):045321 0/1(1):214053 1/5:531240 0/1(2):531204 0/1(2):120543 0/1(2):321054 0/1(2):210534 0/1(3):053241 0/1(2):531420 0/1(1):534120
p1841
tp1842
a(F4883.756017923355
L12377035L
(lp1843
g3
ag5
ag7
ag1219
ag1706
ag1780
ag1822
ag1823
ag1824
ag1825
ag1826
ag1827
ag1828
ag1829
ag1830
ag1831
ag1832
a(L3L
L5L
L0L
g1751
tp1844
a(L0L
L1L
L1L
g633
tp1845
a(L0L
L1L
L1L
g1391
tp1846
a(L0L
L1L
L1L
g173
tp1847
a(L0L
L1L
L1L
g50
tp1848
a(L2L
L6L
L0L
g136
tp1849
a(L0L
L1L
L2L
g132
tp1850
a(L0L
L1L
L1L
g134
tp1851
aV[73] lvl: 25 | 0/24:123450 0/31:450213 0/31:354021 4/29:350421 8/29:024135 14/32:021435 13/29:021345 11/24:520134 10/24:425013 5/21:013245 4/18:451032 0/1(1):451302 0/1(1):451023 5/11:510243 6/9:245310 0/1(1):045321 0/1(1):214053 3/5:531204 0/1(1):120543 0/1(1):321054 0/1(1):210534 0/1(1):053241 2/6:435120 0/1(2):431250 0/1(1):431520
p1852
tp1853
a(F4884.0350687503815
L12377724L
(lp1854
g3
ag5
ag7
ag1219
ag1706
ag1780
ag1822
ag1823
ag1824
a(L6L
L21L
L0L
g414
tp1855
a(L5L
L20L
L0L
g416
tp1856
a(L4L
L20L
L0L
g1736
tp1857
a(L0L
L1L
L3L
g186
tp1858
a(L0L
L1L
L4L
g235
tp1859
a(L0L
L1L
L3L
g259
tp1860
a(L0L
L1L
L2L
g261
tp1861
a(L0L
L1L
L2L
g301
tp1862
a(L0L
L1L
L2L
g105
tp1863
a(L0L
L1L
L2L
g757
tp1864
a(L0L
L1L
L4L
g245
tp1865
a(L0L
L1L
L5L
g1553
tp1866
a(L0L
L1L
L4L
g20
tp1867
a(L0L
L1L
L3L
g1751
tp1868
a(L0L
L1L
L2L
g85
tp1869
a(L0L
L1L
L1L
g83
tp1870
aV[74] lvl: 25 | 0/24:123450 0/31:450213 0/31:354021 4/29:350421 8/29:024135 14/32:021435 13/29:021345 11/24:520134 10/24:425013 6/21:132450 5/20:503124 4/20:240531 0/1(3):124530 0/1(4):420153 0/1(3):420513 0/1(2):531024 0/1(2):314025 0/1(2):310254 0/1(2):253410 0/1(4):245310 0/1(5):310425 0/1(4):342105 0/1(3):531204 0/1(2):531420 0/1(1):534120
p1871
tp1872
a(F4888.892383575439
L12390180L
(lp1873
g3
ag5
ag7
ag1219
ag1706
ag1780
ag1822
a(L16L
L24L
L0L
g815
tp1874
a(L14L
L28L
L0L
g183
tp1875
a(L17L
L23L
L0L
g970
tp1876
a(L0L
L1L
L1L
g817
tp1877
a(L0L
L1L
L1L
g930
tp1878
a(L12L
L17L
L0L
g1104
tp1879
a(L0L
L1L
L3L
g385
tp1880
a(L0L
L1L
L3L
g186
tp1881
a(L0L
L1L
L3L
g1403
tp1882
a(L0L
L1L
L2L
g393
tp1883
a(L0L
L1L
L2L
g251
tp1884
a(L0L
L1L
L1L
g261
tp1885
a(L0L
L1L
L4L
g105
tp1886
a(L0L
L1L
L4L
g1553
tp1887
a(L0L
L1L
L3L
g301
tp1888
a(L0L
L1L
L2L
g445
tp1889
a(L0L
L1L
L2L
g1232
tp1890
a(L0L
L1L
L1L
g253
tp1891
aV[75] lvl: 25 | 0/24:123450 0/31:450213 0/31:354021 4/29:350421 8/29:024135 14/32:021435 13/29:021345 16/24:305412 14/28:412035 17/23:413205 0/1(1):301542 0/1(1):420315 12/17:132405 0/1(3):014253 0/1(3):124530 0/1(3):132045 0/1(2):425031 0/1(2):124503 0/1(1):531024 0/1(4):310254 0/1(4):310425 0/1(3):314025 0/1(2):431052 0/1(2):310542 0/1(1):450132
p1892
tp1893
a(F4914.676336765289
L12458421L
(lp1894
g3
ag5
ag7
ag1219
ag1706
a(L18L
L32L
L0L
g583
tp1895
a(L0L
L1L
L1L
g984
tp1896
a(L25L
L33L
L0L
g385
tp1897
a(L20L
L31L
L0L
g1553
tp1898
a(L15L
L25L
L0L
g301
tp1899
a(L12L
L20L
L0L
g391
tp1900
a(L0L
L1L
L1L
g393
tp1901
a(L11L
L14L
L0L
g1082
tp1902
a(L0L
L1L
L3L
g50
tp1903
a(L0L
L1L
L2L
g311
tp1904
a(L0L
L1L
L1L
g20
tp1905
a(L4L
L5L
L0L
g817
tp1906
a(L3L
L4L
L0L
V543201
p1907
tp1908
a(L0L
L1L
L3L
g597
tp1909
a(L0L
L1L
L4L
g196
tp1910
a(L0L
L1L
L4L
g429
tp1911
a(L0L
L1L
L4L
g44
tp1912
a(L0L
L1L
L3L
g1321
tp1913
a(L0L
L1L
L2L
g510
tp1914
a(L0L
L1L
L1L
g152
tp1915
aV[76] lvl: 25 | 0/24:123450 0/31:450213 0/31:354021 4/29:350421 8/29:024135 18/32:345102 0/1(1):015243 25/33:014253 20/31:310425 15/25:314025 12/20:420531 0/1(1):425031 11/14:205341 0/1(3):053241 0/1(2):341025 0/1(1):342105 4/5:301542 3/4:543201 0/1(3):014532 0/1(4):321045 0/1(4):103452 0/1(4):321405 0/1(3):432051 0/1(2):432501 0/1(1):451203
p1916
tp1917
a(F4930.326581001282
L12499487L
(lp1918
g3
ag5
ag7
ag1219
ag1706
a(L19L
L32L
L0L
g22
tp1919
a(L25L
L33L
L0L
g1357
tp1920
a(L22L
L34L
L0L
g627
tp1921
a(L0L
L1L
L1L
g1748
tp1922
a(L22L
L30L
L0L
g12
tp1923
a(L18L
L28L
L0L
g14
tp1924
a(L0L
L1L
L1L
g597
tp1925
a(L11L
L20L
L0L
g16
tp1926
a(L0L
L1L
L1L
g18
tp1927
a(L7L
L13L
L0L
g196
tp1928
a(L0L
L1L
L1L
g44
tp1929
a(L6L
L8L
L0L
g984
tp1930
a(L6L
L9L
L0L
g1237
tp1931
a(L0L
L1L
L2L
g633
tp1932
a(L0L
L1L
L2L
g1391
tp1933
a(L0L
L1L
L2L
g173
tp1934
a(L0L
L1L
L4L
g50
tp1935
a(L0L
L1L
L3L
g1349
tp1936
a(L0L
L1L
L2L
g1239
tp1937
a(L0L
L1L
L1L
g83
tp1938
aV[77] lvl: 25 | 0/24:123450 0/31:450213 0/31:354021 4/29:350421 8/29:024135 19/32:451023 25/33:301452 22/34:520314 0/1(1):520134 22/30:425013 18/28:013245 0/1(1):014532 11/20:451032 0/1(1):451302 7/13:321045 0/1(1):321405 6/8:015243 6/9:520431 0/1(2):120543 0/1(2):321054 0/1(2):210534 0/1(4):053241 0/1(3):410253 0/1(2):524031 0/1(1):534120
p1939
tp1940
a(F29589.550452947617
L13174255L
(lp1941
g3
ag5
ag7
ag1219
a(L11L
L29L
L0L
V231450
p1942
tp1943
a(L9L
L27L
L0L
g995
tp1944
a(L11L
L31L
L0L
g143
tp1945
a(L15L
L31L
L0L
g297
tp1946
a(L16L
L26L
L0L
g150
tp1947
a(L0L
L1L
L1L
g704
tp1948
a(L21L
L24L
L0L
g817
tp1949
a(L0L
L1L
L1L
g313
tp1950
a(L20L
L22L
L0L
g984
tp1951
a(L18L
L20L
L0L
g268
tp1952
a(L0L
L1L
L2L
g50
tp1953
a(L0L
L1L
L1L
g617
tp1954
a(L0L
L1L
L1L
g804
tp1955
a(L0L
L1L
L1L
g1301
tp1956
a(L0L
L1L
L1L
g105
tp1957
a(L3L
L4L
L0L
g957
tp1958
a(L0L
L1L
L0L
V025143
p1959
tp1960
a(L0L
L1L
L4L
g982
tp1961
a(L0L
L1L
L3L
g587
tp1962
a(L0L
L1L
L2L
g1321
tp1963
a(L0L
L1L
L1L
g510
tp1964
aV[78] lvl: 25 | 0/24:123450 0/31:450213 0/31:354021 4/29:350421 11/29:231450 9/27:032145 11/31:210453 15/31:214053 16/26:234510 0/1(1):512034 21/24:301542 0/1(1):420135 20/22:015243 18/20:310524 0/1(2):053241 0/1(1):413052 0/1(1):305421 0/1(1):012543 0/1(1):310254 3/4:413025 0/1:025143 0/1(4):251043 0/1(3):251403 0/1(2):432051 0/1(1):432501
p1965
tp1966
a(F30213.63908982277
L13420749L
(lp1967
g3
ag5
ag7
ag1219
a(L12L
L29L
L0L
g150
tp1968
a(L14L
L32L
L0L
V345210
p1969
tp1970
a(L11L
L33L
L0L
g372
tp1971
a(L10L
L30L
L0L
g488
tp1972
a(L0L
L1L
L2L
g385
tp1973
a(L0L
L1L
L1L
g42
tp1974
a(L0L
L1L
L1L
g44
tp1975
a(L7L
L24L
L0L
g268
tp1976
a(L0L
L1L
L2L
g50
tp1977
a(L0L
L1L
L1L
g105
tp1978
a(L3L
L16L
L0L
g468
tp1979
a(L0L
L1L
L2L
g957
tp1980
a(L0L
L1L
L2L
V214035
p1981
tp1982
a(L0L
L1L
L1L
g113
tp1983
a(L0L
L1L
L1L
g167
tp1984
a(L2L
L7L
L0L
g1289
tp1985
a(L0L
L1L
L4L
V354210
p1986
tp1987
a(L0L
L1L
L4L
g930
tp1988
a(L0L
L1L
L3L
g391
tp1989
a(L0L
L1L
L2L
g393
tp1990
a(L0L
L1L
L1L
g1491
tp1991
aV[79] lvl: 25 | 0/24:123450 0/31:450213 0/31:354021 4/29:350421 12/29:234510 14/32:345210 11/33:210435 10/30:510243 0/1(2):014253 0/1(1):045321 0/1(1):321405 7/24:310524 0/1(2):053241 0/1(1):310254 3/16:532041 0/1(2):413025 0/1(2):214035 0/1(1):532401 0/1(1):532014 2/7:142035 0/1(4):354210 0/1(4):420315 0/1(3):420531 0/1(2):425031 0/1(1):542013
p1992
tp1993
a(F30322.613686561584
L13755335L
(lp1994
g3
ag5
ag7
ag1219
a(L14L
L29L
L0L
g22
tp1995
a(L13L
L32L
L0L
g58
tp1996
a(L0L
L1L
L1L
g984
tp1997
a(L15L
L33L
L0L
g62
tp1998
a(L13L
L28L
L0L
g60
tp1999
a(L9L
L21L
L0L
g815
tp2000
a(L12L
L23L
L0L
g970
tp2001
a(L0L
L1L
L1L
g186
tp2002
a(L0L
L1L
L1L
g1403
tp2003
a(L0L
L1L
L1L
g817
tp2004
a(L8L
L18L
L0L
g1104
tp2005
a(L0L
L1L
L2L
g445
tp2006
a(L0L
L1L
L2L
g1232
tp2007
a(L0L
L1L
L1L
g1684
tp2008
a(L0L
L1L
L4L
g1098
tp2009
a(L0L
L1L
L4L
g38
tp2010
a(L0L
L1L
L3L
g1039
tp2011
a(L0L
L1L
L2L
g299
tp2012
a(L0L
L1L
L1L
g393
tp2013
a(L0L
L1L
L1L
g251
tp2014
a(L0L
L1L
L1L
g253
tp2015
aV[80] lvl: 25 | 0/24:123450 0/31:450213 0/31:354021 4/29:350421 14/29:451023 13/32:354102 0/1(1):015243 15/33:351402 13/28:351042 9/21:305412 12/23:413205 0/1(1):124530 0/1(1):132045 0/1(1):301542 8/18:132405 0/1(2):431052 0/1(2):310542 0/1(1):542031 0/1(4):145203 0/1(4):152043 0/1(3):152403 0/1(2):421305 0/1(1):425031 0/1(1):124503 0/1(1):450132
p2016
tp2017
a(F30324.09788274765
L13759491L
(lp2018
g3
ag5
ag7
ag1219
ag1995
ag1996
ag1997
ag1998
ag1999
a(L14L
L21L
L0L
g186
tp2019
a(L15L
L21L
L0L
g445
tp2020
a(L15L
L20L
L0L
g1232
tp2021
a(L15L
L24L
L0L
g299
tp2022
a(L11L
L18L
L0L
g307
tp2023
a(L8L
L17L
L0L
g1491
tp2024
a(L7L
L17L
L0L
g315
tp2025
a(L0L
L1L
L2L
g38
tp2026
a(L0L
L1L
L1L
g1039
tp2027
a(L3L
L10L
L0L
g12
tp2028
a(L0L
L1L
L1L
g414
tp2029
a(L0L
L1L
L1L
g28
tp2030
a(L2L
L3L
L0L
g24
tp2031
a(L0L
L1L
L1L
g81
tp2032
a(L0L
L1L
L2L
g1013
tp2033
a(L0L
L1L
L1L
g1120
tp2034
aV[81] lvl: 25 | 0/24:123450 0/31:450213 0/31:354021 4/29:350421 14/29:451023 13/32:354102 0/1(1):015243 15/33:351402 13/28:351042 14/21:124530 15/21:431052 15/20:310542 15/24:421305 11/18:103542 8/17:542013 7/17:134520 0/1(2):152043 0/1(1):152403 3/10:425013 0/1(1):132450 0/1(1):450312 2/3:105432 0/1(1):431205 0/1(2):120453 0/1(1):124053
p2035
tp2036
a.