(lp0
(F51.16850519180298
L121063L
(lp1
(L0L
L24L
L0L
V123450
p2
tp3
a(L0L
L31L
L0L
V450213
p4
tp5
a(L0L
L31L
L0L
V354021
p6
tp7
a(L0L
L29L
L0L
V021534
p8
tp9
a(L0L
L29L
L0L
V534201
p10
tp11
a(L2L
L27L
L0L
V425013
p12
tp13
a(L2L
L30L
L0L
V013245
p14
tp15
a(L2L
L25L
L0L
V451032
p16
tp17
a(L0L
L1L
L1L
V451302
p18
tp19
a(L10L
L23L
L0L
V342105
p20
tp21
a(L0L
L1L
L1L
V451023
p22
tp23
a(L5L
L20L
L0L
V105432
p24
tp25
a(L15L
L17L
L0L
V012453
p26
tp27
a(L0L
L1L
L2L
V450312
p28
tp29
a(L0L
L1L
L2L
V250431
p30
tp31
a(L0L
L1L
L1L
V453102
p32
tp33
a(L0L
L1L
L2L
V503142
p34
tp35
a(L0L
L1L
L1L
V503412
p36
tp37
a(L0L
L1L
L1L
V152043
p38
tp39
a(L0L
L1L
L1L
V352104
p40
tp41
a(L0L
L1L
L1L
V045321
p42
tp43
a(L0L
L1L
L1L
V321405
p44
tp45
a(L0L
L1L
L1L
V140352
p46
tp47
a(L0L
L1L
L1L
V352410
p48
tp49
a(L0L
L1L
L1L
V053241
p50
tp51
aV[0] lvl: 25 | 0/24:123450 0/31:450213 0/31:354021 0/29:021534 0/29:534201 2/27:425013 2/30:013245 2/25:451032 0/1(1):451302 10/23:342105 0/1(1):451023 5/20:105432 15/17:012453 0/1(2):450312 0/1(2):250431 0/1(1):453102 0/1(2):503142 0/1(1):503412 0/1(1):152043 0/1(1):352104 0/1(1):045321 0/1(1):321405 0/1(1):140352 0/1(1):352410 0/1(1):053241
p52
tp53
a(F53.966318130493164
L125441L
(lp54
g3
ag5
ag7
ag9
ag11
ag13
ag15
a(L10L
L25L
L0L
g20
tp55
a(L9L
L28L
L0L
g24
tp56
a(L19L
L24L
L0L
g22
tp57
a(L17L
L26L
L0L
V354102
p58
tp59
a(L0L
L1L
L2L
V351042
p60
tp61
a(L0L
L1L
L1L
V351402
p62
tp63
a(L14L
L16L
L0L
g26
tp64
a(L0L
L1L
L1L
g28
tp65
a(L0L
L1L
L3L
g30
tp66
a(L0L
L1L
L2L
g34
tp67
a(L0L
L1L
L1L
g36
tp68
a(L0L
L1L
L1L
g38
tp69
a(L0L
L1L
L1L
g40
tp70
a(L0L
L1L
L1L
g42
tp71
a(L0L
L1L
L1L
g44
tp72
a(L0L
L1L
L1L
g46
tp73
a(L0L
L1L
L1L
g48
tp74
a(L0L
L1L
L1L
g50
tp75
aV[1] lvl: 25 | 0/24:123450 0/31:450213 0/31:354021 0/29:021534 0/29:534201 2/27:425013 2/30:013245 10/25:342105 9/28:105432 19/24:451023 17/26:354102 0/1(2):351042 0/1(1):351402 14/16:012453 0/1(1):450312 0/1(3):250431 0/1(2):503142 0/1(1):503412 0/1(1):152043 0/1(1):352104 0/1(1):045321 0/1(1):321405 0/1(1):140352 0/1(1):352410 0/1(1):053241
p76
tp77
a(F121.55731105804443
L272500L
(lp78
g3
ag5
ag7
ag9
ag11
a(L5L
L27L
L0L
g20
tp79
a(L4L
L30L
L0L
g24
tp80
a(L6L
L30L
L0L
V431205
p81
tp82
a(L5L
L30L
L0L
V534120
p83
tp84
a(L6L
L27L
L0L
V531420
p85
tp86
a(L5L
L24L
L0L
V531240
p87
tp88
a(L9L
L21L
L0L
V542310
p89
tp90
a(L13L
L21L
L0L
V421035
p91
tp92
a(L0L
L1L
L3L
V104352
p93
tp94
a(L0L
L1L
L2L
V352140
p95
tp96
a(L0L
L1L
L2L
V230451
p97
tp98
a(L0L
L1L
L2L
V053214
p99
tp100
a(L0L
L1L
L1L
g48
tp101
a(L0L
L1L
L2L
g50
tp102
a(L0L
L1L
L2L
V524310
p103
tp104
a(L0L
L1L
L2L
V310254
p105
tp106
a(L0L
L1L
L2L
V410325
p107
tp108
a(L0L
L1L
L3L
V104325
p109
tp110
a(L0L
L1L
L2L
V325140
p111
tp112
a(L0L
L1L
L1L
V532401
p113
tp114
aV[2] lvl: 25 | 0/24:123450 0/31:450213 0/31:354021 0/29:021534 0/29:534201 5/27:342105 4/30:105432 6/30:431205 5/30:534120 6/27:531420 5/24:531240 9/21:542310 13/21:421035 0/1(3):104352 0/1(2):352140 0/1(2):230451 0/1(2):053214 0/1(1):352410 0/1(2):053241 0/1(2):524310 0/1(2):310254 0/1(2):410325 0/1(3):104325 0/1(2):325140 0/1(1):532401
p115
tp116
a(F122.61502528190613
L274942L
(lp117
g3
ag5
ag7
ag9
ag11
ag79
ag80
ag82
a(L12L
L30L
L0L
g89
tp118
a(L16L
L30L
L0L
g91
tp119
a(L0L
L1L
L3L
g93
tp120
a(L0L
L1L
L2L
g95
tp121
a(L0L
L1L
L2L
g97
tp122
a(L0L
L1L
L2L
g99
tp123
a(L0L
L1L
L1L
g48
tp124
a(L0L
L1L
L2L
g50
tp125
a(L0L
L1L
L2L
g103
tp126
a(L0L
L1L
L2L
g105
tp127
a(L0L
L1L
L2L
g107
tp128
a(L0L
L1L
L3L
g109
tp129
a(L0L
L1L
L2L
g111
tp130
a(L0L
L1L
L1L
g113
tp131
a(L3L
L6L
L0L
V431250
p132
tp133
a(L0L
L1L
L2L
V431520
p134
tp135
a(L0L
L1L
L1L
V435120
p136
tp137
aV[3] lvl: 25 | 0/24:123450 0/31:450213 0/31:354021 0/29:021534 0/29:534201 5/27:342105 4/30:105432 6/30:431205 12/30:542310 16/30:421035 0/1(3):104352 0/1(2):352140 0/1(2):230451 0/1(2):053214 0/1(1):352410 0/1(2):053241 0/1(2):524310 0/1(2):310254 0/1(2):410325 0/1(3):104325 0/1(2):325140 0/1(1):532401 3/6:431250 0/1(2):431520 0/1(1):435120
p138
tp139
a(F130.23595309257507
L292927L
(lp140
g3
ag5
ag7
ag9
ag11
ag79
a(L5L
L30L
L0L
V543210
p141
tp142
a(L5L
L35L
L0L
V210453
p143
tp144
a(L0L
L1L
L3L
g42
tp145
a(L0L
L1L
L2L
V215043
p146
tp147
a(L0L
L1L
L2L
g22
tp148
a(L0L
L1L
L2L
g58
tp149
a(L0L
L1L
L2L
V234510
p150
tp151
a(L0L
L1L
L2L
V451203
p152
tp153
a(L0L
L1L
L4L
g132
tp154
a(L0L
L1L
L3L
g134
tp155
a(L0L
L1L
L3L
g44
tp156
a(L0L
L1L
L4L
g97
tp157
a(L0L
L1L
L3L
g62
tp158
a(L0L
L1L
L2L
V453120
p159
tp160
a(L0L
L1L
L2L
V513204
p161
tp162
a(L0L
L1L
L2L
V041532
p163
tp164
a(L0L
L1L
L3L
V324105
p165
tp166
a(L0L
L1L
L2L
V532014
p167
tp168
a(L0L
L1L
L1L
g113
tp169
aV[4] lvl: 25 | 0/24:123450 0/31:450213 0/31:354021 0/29:021534 0/29:534201 5/27:342105 5/30:543210 5/35:210453 0/1(3):045321 0/1(2):215043 0/1(2):451023 0/1(2):354102 0/1(2):234510 0/1(2):451203 0/1(4):431250 0/1(3):431520 0/1(3):321405 0/1(4):230451 0/1(3):351402 0/1(2):453120 0/1(2):513204 0/1(2):041532 0/1(3):324105 0/1(2):532014 0/1(1):532401
p170
tp171
a(F174.53618502616882
L398883L
(lp172
g3
ag5
ag7
ag9
ag11
a(L7L
L27L
L0L
V210534
p173
tp174
a(L7L
L32L
L0L
V412053
p175
tp176
a(L12L
L32L
L0L
V205431
p177
tp178
a(L22L
L27L
L0L
g22
tp179
a(L0L
L1L
L1L
g62
tp180
a(L18L
L25L
L0L
V235410
p181
tp182
a(L16L
L22L
L0L
V412035
p183
tp184
a(L0L
L1L
L1L
g60
tp185
a(L0L
L1L
L1L
V124530
p186
tp187
a(L10L
L13L
L0L
V230541
p188
tp189
a(L8L
L11L
L0L
V541320
p190
tp191
a(L2L
L3L
L0L
V021453
p192
tp193
a(L0L
L1L
L4L
V145032
p194
tp195
a(L0L
L1L
L5L
V321045
p196
tp197
a(L0L
L1L
L4L
g44
tp198
a(L0L
L1L
L3L
g28
tp199
a(L0L
L1L
L3L
g30
tp200
a(L0L
L1L
L3L
g134
tp201
a(L0L
L1L
L2L
V501324
p202
tp203
a(L0L
L1L
L1L
g167
tp204
aV[5] lvl: 25 | 0/24:123450 0/31:450213 0/31:354021 0/29:021534 0/29:534201 7/27:210534 7/32:412053 12/32:205431 22/27:451023 0/1(1):351402 18/25:235410 16/22:412035 0/1(1):351042 0/1(1):124530 10/13:230541 8/11:541320 2/3:021453 0/1(4):145032 0/1(5):321045 0/1(4):321405 0/1(3):450312 0/1(3):250431 0/1(3):431520 0/1(2):501324 0/1(1):532014
p205
tp206
a(F244.70446729660034
L539114L
(lp207
g3
ag5
ag7
ag9
ag11
a(L14L
L27L
L0L
g150
tp208
a(L18L
L31L
L0L
V452103
p209
tp210
a(L14L
L29L
L0L
V521043
p211
tp212
a(L13L
L32L
L0L
g146
tp213
a(L0L
L1L
L1L
g152
tp214
a(L0L
L1L
L2L
g132
tp215
a(L0L
L1L
L2L
g42
tp216
a(L0L
L1L
L2L
g134
tp217
a(L0L
L1L
L1L
g167
tp218
a(L7L
L13L
L0L
g143
tp219
a(L0L
L1L
L1L
g22
tp220
a(L0L
L1L
L1L
g62
tp221
a(L0L
L1L
L3L
g97
tp222
a(L0L
L1L
L4L
V452130
p223
tp224
a(L0L
L1L
L3L
V452310
p225
tp226
a(L0L
L1L
L3L
g58
tp227
a(L0L
L1L
L2L
g159
tp228
a(L0L
L1L
L1L
g161
tp229
a(L0L
L1L
L1L
g163
tp230
a(L0L
L1L
L1L
g113
tp231
aV[6] lvl: 25 | 0/24:123450 0/31:450213 0/31:354021 0/29:021534 0/29:534201 14/27:234510 18/31:452103 14/29:521043 13/32:215043 0/1(1):451203 0/1(2):431250 0/1(2):045321 0/1(2):431520 0/1(1):532014 7/13:210453 0/1(1):451023 0/1(1):351402 0/1(3):230451 0/1(4):452130 0/1(3):452310 0/1(3):354102 0/1(2):453120 0/1(1):513204 0/1(1):041532 0/1(1):532401
p232
tp233
a(F31155.03602027893
L858787L
(lp234
g3
ag5
ag7
ag9
a(L1L
L29L
L0L
V420153
p235
tp236
a(L6L
L31L
L0L
g20
tp237
a(L19L
L34L
L0L
V021345
p238
tp239
a(L16L
L29L
L0L
V452013
p240
tp241
a(L0L
L1L
L1L
V340521
p242
tp243
a(L0L
L1L
L1L
g186
tp244
a(L15L
L20L
L0L
V245310
p245
tp246
a(L12L
L17L
L0L
g159
tp247
a(L9L
L14L
L0L
g83
tp248
a(L9L
L13L
L0L
g85
tp249
a(L0L
L1L
L1L
g87
tp250
a(L0L
L1L
L1L
V124503
p251
tp252
a(L4L
L6L
L0L
V450132
p253
tp254
a(L5L
L7L
L0L
V013425
p255
tp256
a(L0L
L1L
L2L
V340251
p257
tp258
a(L0L
L1L
L1L
V420513
p259
tp260
a(L0L
L1L
L0L
V531024
p261
tp262
a(L0L
L1L
L4L
V243150
p263
tp264
a(L0L
L1L
L3L
V243510
p265
tp266
a(L0L
L1L
L2L
g105
tp267
a(L0L
L1L
L1L
V310524
p268
tp269
aV[7] lvl: 25 | 0/24:123450 0/31:450213 0/31:354021 0/29:021534 1/29:420153 6/31:342105 19/34:021345 16/29:452013 0/1(1):340521 0/1(1):124530 15/20:245310 12/17:453120 9/14:534120 9/13:531420 0/1(1):531240 0/1(1):124503 4/6:450132 5/7:013425 0/1(2):340251 0/1(1):420513 0/1:531024 0/1(4):243150 0/1(3):243510 0/1(2):310254 0/1(1):310524
p270
tp271
a(F31155.112681150436
L858831L
(lp272
g3
ag5
ag7
ag9
ag236
ag237
ag239
ag241
ag243
ag244
ag246
ag247
a(L12L
L14L
L0L
g261
tp273
a(L0L
L1L
L4L
g263
tp274
a(L0L
L1L
L3L
g265
tp275
a(L0L
L1L
L2L
g105
tp276
a(L0L
L1L
L1L
g268
tp277
a(L8L
L11L
L0L
g136
tp278
a(L0L
L1L
L2L
g132
tp279
a(L0L
L1L
L2L
g251
tp280
a(L0L
L1L
L2L
g134
tp281
a(L0L
L1L
L1L
g253
tp282
a(L0L
L1L
L1L
g255
tp283
a(L0L
L1L
L2L
g257
tp284
a(L0L
L1L
L1L
g259
tp285
aV[8] lvl: 25 | 0/24:123450 0/31:450213 0/31:354021 0/29:021534 1/29:420153 6/31:342105 19/34:021345 16/29:452013 0/1(1):340521 0/1(1):124530 15/20:245310 12/17:453120 12/14:531024 0/1(4):243150 0/1(3):243510 0/1(2):310254 0/1(1):310524 8/11:435120 0/1(2):431250 0/1(2):124503 0/1(2):431520 0/1(1):450132 0/1(1):013425 0/1(2):340251 0/1(1):420513
p286
tp287
a(F31257.333218097687
L1106295L
(lp288
g3
ag5
ag7
ag9
a(L2L
L29L
L0L
g20
tp289
a(L2L
L34L
L0L
g24
tp290
a(L4L
L34L
L0L
V543120
p291
tp292
a(L0L
L1L
L1L
g89
tp293
a(L7L
L31L
L0L
g132
tp294
a(L11L
L30L
L0L
g141
tp295
a(L8L
L25L
L0L
g42
tp296
a(L8L
L23L
L0L
V214053
p297
tp298
a(L0L
L1L
L1L
V421305
p299
tp300
a(L6L
L14L
L0L
V314025
p301
tp302
a(L0L
L1L
L1L
V025134
p303
tp304
a(L0L
L1L
L1L
g12
tp305
a(L0L
L1L
L1L
g14
tp306
a(L6L
L8L
L0L
V103542
p307
tp308
a(L0L
L1L
L2L
g173
tp309
a(L0L
L1L
L3L
g50
tp310
a(L0L
L1L
L2L
V341025
p311
tp312
a(L0L
L1L
L2L
V420135
p313
tp314
a(L0L
L1L
L3L
V134520
p315
tp316
a(L0L
L1L
L2L
V135240
p317
tp318
a(L0L
L1L
L1L
V543102
p319
tp320
aV[9] lvl: 25 | 0/24:123450 0/31:450213 0/31:354021 0/29:021534 2/29:342105 2/34:105432 4/34:543120 0/1(1):542310 7/31:431250 11/30:543210 8/25:045321 8/23:214053 0/1(1):421305 6/14:314025 0/1(1):025134 0/1(1):425013 0/1(1):013245 6/8:103542 0/1(2):210534 0/1(3):053241 0/1(2):341025 0/1(2):420135 0/1(3):134520 0/1(2):135240 0/1(1):543102
p321
tp322
a(F31287.519401311874
L1179021L
(lp323
g3
ag5
ag7
ag9
ag289
ag290
a(L9L
L34L
L0L
g299
tp324
a(L13L
L29L
L0L
g307
tp325
a(L11L
L30L
L0L
g313
tp326
a(L10L
L29L
L0L
g317
tp327
a(L10L
L23L
L0L
g315
tp328
a(L9L
L17L
L0L
g173
tp329
a(L6L
L17L
L0L
g311
tp330
a(L0L
L1L
L1L
g319
tp331
a(L0L
L1L
L1L
g50
tp332
a(L4L
L13L
L0L
g245
tp333
a(L0L
L1L
L3L
g42
tp334
a(L0L
L1L
L3L
g297
tp335
a(L0L
L1L
L3L
g263
tp336
a(L0L
L1L
L3L
g265
tp337
a(L0L
L1L
L2L
g301
tp338
a(L0L
L1L
L2L
g303
tp339
a(L0L
L1L
L2L
g12
tp340
a(L0L
L1L
L2L
g14
tp341
a(L0L
L1L
L1L
g132
tp342
aV[10] lvl: 25 | 0/24:123450 0/31:450213 0/31:354021 0/29:021534 2/29:342105 2/34:105432 9/34:421305 13/29:103542 11/30:420135 10/29:135240 10/23:134520 9/17:210534 6/17:341025 0/1(1):543102 0/1(1):053241 4/13:245310 0/1(3):045321 0/1(3):214053 0/1(3):243150 0/1(3):243510 0/1(2):314025 0/1(2):025134 0/1(2):425013 0/1(2):013245 0/1(1):431250
p343
tp344
a(F31365.780314207077
L1368733L
(lp345
g3
ag5
ag7
ag9
ag289
a(L5L
L34L
L0L
V423105
p346
tp347
a(L7L
L35L
L0L
V231045
p348
tp349
a(L0L
L1L
L1L
g42
tp350
a(L4L
L26L
L0L
g167
tp351
a(L0L
L1L
L1L
g299
tp352
a(L4L
L21L
L0L
V435201
p353
tp354
a(L5L
L20L
L0L
V520413
p355
tp356
a(L0L
L1L
L1L
g163
tp357
a(L0L
L1L
L2L
V045132
p358
tp359
a(L0L
L1L
L1L
V154032
p360
tp361
a(L0L
L1L
L2L
g111
tp362
a(L0L
L1L
L2L
g303
tp363
a(L0L
L1L
L1L
V325410
p364
tp365
a(L2L
L7L
L0L
g159
tp366
a(L0L
L1L
L1L
V403125
p367
tp368
a(L0L
L1L
L1L
g30
tp369
a(L0L
L1L
L1L
g134
tp370
a(L0L
L1L
L1L
g91
tp371
a(L0L
L1L
L1L
V210435
p372
tp373
a(L0L
L1L
L1L
g136
tp374
aV[11] lvl: 25 | 0/24:123450 0/31:450213 0/31:354021 0/29:021534 2/29:342105 5/34:423105 7/35:231045 0/1(1):045321 4/26:532014 0/1(1):421305 4/21:435201 5/20:520413 0/1(1):041532 0/1(2):045132 0/1(1):154032 0/1(2):325140 0/1(2):025134 0/1(1):325410 2/7:453120 0/1(1):403125 0/1(1):250431 0/1(1):431520 0/1(1):421035 0/1(1):210435 0/1(1):435120
p375
tp376
a(F31366.51121520996
L1370411L
(lp377
g3
ag5
ag7
ag9
ag289
ag347
a(L9L
L35L
L0L
g299
tp378
a(L7L
L26L
L0L
g91
tp379
a(L6L
L26L
L0L
V524103
p380
tp381
a(L0L
L1L
L1L
g186
tp382
a(L5L
L25L
L0L
g364
tp383
a(L0L
L1L
L1L
g372
tp384
a(L0L
L1L
L1L
V014253
p385
tp386
a(L0L
L1L
L1L
g192
tp387
a(L3L
L15L
L0L
g136
tp388
a(L0L
L1L
L3L
g301
tp389
a(L0L
L1L
L3L
g303
tp390
a(L0L
L1L
L2L
V420531
p391
tp392
a(L0L
L1L
L2L
V425031
p393
tp394
a(L0L
L1L
L2L
g30
tp395
a(L0L
L1L
L2L
g134
tp396
a(L0L
L1L
L1L
g167
tp397
a(L0L
L1L
L1L
g353
tp398
a(L0L
L1L
L2L
g355
tp399
a(L0L
L1L
L1L
V524013
p400
tp401
aV[12] lvl: 25 | 0/24:123450 0/31:450213 0/31:354021 0/29:021534 2/29:342105 5/34:423105 9/35:421305 7/26:421035 6/26:524103 0/1(1):124530 5/25:325410 0/1(1):210435 0/1(1):014253 0/1(1):021453 3/15:435120 0/1(3):314025 0/1(3):025134 0/1(2):420531 0/1(2):425031 0/1(2):250431 0/1(2):431520 0/1(1):532014 0/1(1):435201 0/1(2):520413 0/1(1):524013
p402
tp403
a(F31474.09938097
L1627406L
(lp404
g3
ag5
ag7
ag9
ag289
a(L9L
L34L
L0L
g307
tp405
a(L12L
L33L
L0L
V150342
p406
tp407
a(L11L
L31L
L0L
V342510
p408
tp409
a(L22L
L30L
L0L
V234051
p410
tp411
a(L20L
L31L
L0L
V513240
p412
tp413
a(L17L
L27L
L0L
V132450
p414
tp415
a(L14L
L24L
L0L
V503124
p416
tp417
a(L0L
L1L
L1L
g257
tp418
a(L0L
L1L
L1L
V405312
p419
tp420
a(L8L
L12L
L0L
g242
tp421
a(L0L
L1L
L1L
g186
tp422
a(L0L
L1L
L1L
g261
tp423
a(L0L
L1L
L3L
g263
tp424
a(L0L
L1L
L3L
g38
tp425
a(L0L
L1L
L4L
g105
tp426
a(L0L
L1L
L4L
g268
tp427
a(L0L
L1L
L3L
g40
tp428
a(L0L
L1L
L3L
V103452
p429
tp430
a(L0L
L1L
L2L
V520143
p431
tp432
a(L0L
L1L
L1L
g355
tp433
aV[13] lvl: 25 | 0/24:123450 0/31:450213 0/31:354021 0/29:021534 2/29:342105 9/34:103542 12/33:150342 11/31:342510 22/30:234051 20/31:513240 17/27:132450 14/24:503124 0/1(1):340251 0/1(1):405312 8/12:340521 0/1(1):124530 0/1(1):531024 0/1(3):243150 0/1(3):152043 0/1(4):310254 0/1(4):310524 0/1(3):352104 0/1(3):103452 0/1(2):520143 0/1(1):520413
p434
tp435
a(F31580.35349702835
L1884968L
(lp436
g3
ag5
ag7
ag9
a(L3L
L29L
L0L
V421053
p437
tp438
a(L0L
L1L
L1L
g186
tp439
a(L10L
L32L
L0L
g406
tp440
a(L9L
L32L
L0L
g408
tp441
a(L0L
L1L
L1L
g261
tp442
a(L0L
L1L
L3L
g263
tp443
a(L0L
L1L
L2L
g105
tp444
a(L0L
L1L
L1L
V431052
p445
tp446
a(L10L
L18L
L0L
g410
tp447
a(L0L
L1L
L2L
g257
tp448
a(L0L
L1L
L1L
V405213
p449
tp450
a(L6L
L12L
L0L
g412
tp451
a(L0L
L1L
L1L
g414
tp452
a(L0L
L1L
L1L
g416
tp453
a(L5L
L11L
L0L
g419
tp454
a(L3L
L4L
L0L
g38
tp455
a(L0L
L1L
L3L
V435210
p456
tp457
a(L0L
L1L
L4L
g429
tp458
a(L0L
L1L
L3L
g307
tp459
a(L0L
L1L
L2L
g431
tp460
a(L0L
L1L
L1L
g355
tp461
aV[14] lvl: 25 | 0/24:123450 0/31:450213 0/31:354021 0/29:021534 3/29:421053 0/1(1):124530 10/32:150342 9/32:342510 0/1(1):531024 0/1(3):243150 0/1(2):310254 0/1(1):431052 10/18:234051 0/1(2):340251 0/1(1):405213 6/12:513240 0/1(1):132450 0/1(1):503124 5/11:405312 3/4:152043 0/1(3):435210 0/1(4):103452 0/1(3):103542 0/1(2):520143 0/1(1):520413
p462
tp463
a(F31616.502915143967
L1972245L
(lp464
g3
ag5
ag7
ag9
a(L4L
L29L
L0L
g173
tp465
a(L3L
L34L
L0L
g83
tp466
a(L12L
L33L
L0L
g50
tp467
a(L12L
L31L
L0L
V532041
p468
tp469
a(L11L
L32L
L0L
V413520
p470
tp471
a(L11L
L26L
L0L
V413250
p472
tp473
a(L0L
L1L
L2L
V132054
p474
tp475
a(L0L
L1L
L1L
g410
tp476
a(L0L
L1L
L1L
g449
tp477
a(L7L
L19L
L0L
g291
tp478
a(L0L
L1L
L1L
g141
tp479
a(L0L
L1L
L2L
g42
tp480
a(L0L
L1L
L1L
g456
tp481
a(L3L
L12L
L0L
g297
tp482
a(L0L
L1L
L3L
V402513
p483
tp484
a(L0L
L1L
L4L
V432510
p485
tp486
a(L0L
L1L
L3L
g22
tp487
a(L0L
L1L
L4L
V510243
p488
tp489
a(L0L
L1L
L3L
V510423
p490
tp491
a(L0L
L1L
L2L
g87
tp492
a(L0L
L1L
L1L
g85
tp493
aV[15] lvl: 25 | 0/24:123450 0/31:450213 0/31:354021 0/29:021534 4/29:210534 3/34:534120 12/33:053241 12/31:532041 11/32:413520 11/26:413250 0/1(2):132054 0/1(1):234051 0/1(1):405213 7/19:543120 0/1(1):543210 0/1(2):045321 0/1(1):435210 3/12:214053 0/1(3):402513 0/1(4):432510 0/1(3):451023 0/1(4):510243 0/1(3):510423 0/1(2):531240 0/1(1):531420
p494
tp495
a(F31641.672518253326
L2033067L
(lp496
g3
ag5
ag7
ag9
ag465
a(L4L
L34L
L0L
g175
tp497
a(L13L
L33L
L0L
g50
tp498
a(L21L
L29L
L0L
g150
tp499
a(L22L
L29L
L0L
g152
tp500
a(L20L
L30L
L0L
V203541
p501
tp502
a(L18L
L23L
L0L
g410
tp503
a(L0L
L1L
L1L
g257
tp504
a(L0L
L1L
L1L
g97
tp505
a(L0L
L1L
L1L
g188
tp506
a(L7L
L10L
L0L
g242
tp507
a(L0L
L1L
L1L
g99
tp508
a(L0L
L1L
L1L
g167
tp509
a(L0L
L1L
L2L
V432501
p510
tp511
a(L0L
L1L
L1L
g353
tp512
a(L2L
L4L
L0L
V532104
p513
tp514
a(L0L
L2L
L0L
g146
tp515
a(L0L
L1L
L4L
g132
tp516
a(L0L
L1L
L3L
g134
tp517
a(L0L
L1L
L2L
V502431
p518
tp519
a(L0L
L1L
L1L
V504231
p520
tp521
aV[16] lvl: 25 | 0/24:123450 0/31:450213 0/31:354021 0/29:021534 4/29:210534 4/34:412053 13/33:053241 21/29:234510 22/29:451203 20/30:203541 18/23:234051 0/1(1):340251 0/1(1):230451 0/1(1):230541 7/10:340521 0/1(1):053214 0/1(1):532014 0/1(2):432501 0/1(1):435201 2/4:532104 0/2:215043 0/1(4):431250 0/1(3):431520 0/1(2):502431 0/1(1):504231
p522
tp523
a(F31705.422761917114
L2185493L
(lp524
g3
ag5
ag7
ag9
ag465
a(L9L
L34L
L0L
g50
tp525
a(L9L
L31L
L0L
g468
tp526
a(L8L
L31L
L0L
g470
tp527
a(L8L
L28L
L0L
g315
tp528
a(L11L
L28L
L0L
V135420
p529
tp530
a(L0L
L1L
L1L
g317
tp531
a(L8L
L20L
L0L
g472
tp532
a(L0L
L1L
L2L
g474
tp533
a(L0L
L1L
L1L
g410
tp534
a(L0L
L1L
L1L
g449
tp535
a(L3L
L11L
L0L
g291
tp536
a(L0L
L1L
L2L
g132
tp537
a(L0L
L1L
L1L
g141
tp538
a(L0L
L1L
L1L
g42
tp539
a(L0L
L1L
L1L
g297
tp540
a(L0L
L1L
L3L
g483
tp541
a(L0L
L1L
L2L
g485
tp542
a(L0L
L1L
L1L
g22
tp543
a(L0L
L1L
L2L
g488
tp544
a(L0L
L1L
L1L
g490
tp545
aV[17] lvl: 25 | 0/24:123450 0/31:450213 0/31:354021 0/29:021534 4/29:210534 9/34:053241 9/31:532041 8/31:413520 8/28:134520 11/28:135420 0/1(1):135240 8/20:413250 0/1(2):132054 0/1(1):234051 0/1(1):405213 3/11:543120 0/1(2):431250 0/1(1):543210 0/1(1):045321 0/1(1):214053 0/1(3):402513 0/1(2):432510 0/1(1):451023 0/1(2):510243 0/1(1):510423
p546
tp547
a(F31705.880446195602
L2186417L
(lp548
g3
ag5
ag7
ag9
ag465
ag525
ag526
ag527
a(L11L
L28L
L0L
g472
tp549
a(L0L
L1L
L2L
g474
tp550
a(L0L
L1L
L1L
g410
tp551
a(L0L
L1L
L1L
g449
tp552
a(L7L
L20L
L0L
g291
tp553
a(L0L
L1L
L1L
g141
tp554
a(L0L
L1L
L1L
g42
tp555
a(L7L
L20L
L0L
g136
tp556
a(L0L
L1L
L3L
g132
tp557
a(L0L
L1L
L3L
g297
tp558
a(L0L
L1L
L5L
g483
tp559
a(L0L
L1L
L4L
g134
tp560
a(L0L
L1L
L3L
g485
tp561
a(L0L
L1L
L2L
g456
tp562
a(L0L
L1L
L1L
g22
tp563
a(L0L
L1L
L2L
g488
tp564
a(L0L
L1L
L1L
g490
tp565
aV[18] lvl: 25 | 0/24:123450 0/31:450213 0/31:354021 0/29:021534 4/29:210534 9/34:053241 9/31:532041 8/31:413520 11/28:413250 0/1(2):132054 0/1(1):234051 0/1(1):405213 7/20:543120 0/1(1):543210 0/1(1):045321 7/20:435120 0/1(3):431250 0/1(3):214053 0/1(5):402513 0/1(4):431520 0/1(3):432510 0/1(2):435210 0/1(1):451023 0/1(2):510243 0/1(1):510423
p566
tp567
a(F31705.895040035248
L2186430L
(lp568
g3
ag5
ag7
ag9
ag465
ag525
ag526
ag527
ag549
ag550
ag551
ag552
ag553
ag554
ag555
a(L8L
L20L
L0L
g134
tp569
a(L0L
L1L
L1L
g132
tp570
a(L0L
L1L
L1L
g297
tp571
a(L0L
L1L
L1L
g483
tp572
a(L3L
L5L
L0L
g150
tp573
a(L0L
L1L
L0L
g22
tp574
a(L0L
L1L
L4L
V235140
p575
tp576
a(L0L
L1L
L3L
g181
tp577
a(L0L
L1L
L2L
g488
tp578
a(L0L
L1L
L1L
g490
tp579
aV[19] lvl: 25 | 0/24:123450 0/31:450213 0/31:354021 0/29:021534 4/29:210534 9/34:053241 9/31:532041 8/31:413520 11/28:413250 0/1(2):132054 0/1(1):234051 0/1(1):405213 7/20:543120 0/1(1):543210 0/1(1):045321 8/20:431520 0/1(1):431250 0/1(1):214053 0/1(1):402513 3/5:234510 0/1:451023 0/1(4):235140 0/1(3):235410 0/1(2):510243 0/1(1):510423
p580
tp581
a.