(lp0
(F50.85049295425415
L121063L
(lp1
(L0L
L24L
L0L
V123450
p2
tp3
a(L0L
L31L
L0L
V450213
p4
tp5
a(L0L
L31L
L0L
V354021
p6
tp7
a(L0L
L29L
L0L
V021534
p8
tp9
a(L0L
L29L
L0L
V534201
p10
tp11
a(L2L
L27L
L0L
V425013
p12
tp13
a(L2L
L30L
L0L
V013245
p14
tp15
a(L2L
L25L
L0L
V451032
p16
tp17
a(L0L
L1L
L1L
V451302
p18
tp19
a(L10L
L23L
L0L
V342105
p20
tp21
a(L0L
L1L
L1L
V451023
p22
tp23
a(L5L
L20L
L0L
V105432
p24
tp25
a(L15L
L17L
L0L
V012453
p26
tp27
a(L0L
L1L
L2L
V450312
p28
tp29
a(L0L
L1L
L2L
V250431
p30
tp31
a(L0L
L1L
L1L
V453102
p32
tp33
a(L0L
L1L
L2L
V503142
p34
tp35
a(L0L
L1L
L1L
V503412
p36
tp37
a(L0L
L1L
L1L
V152043
p38
tp39
a(L0L
L1L
L1L
V352104
p40
tp41
a(L0L
L1L
L1L
V045321
p42
tp43
a(L0L
L1L
L1L
V321405
p44
tp45
a(L0L
L1L
L1L
V140352
p46
tp47
a(L0L
L1L
L1L
V352410
p48
tp49
a(L0L
L1L
L1L
V053241
p50
tp51
aV[0] lvl: 25 | 0/24:123450 0/31:450213 0/31:354021 0/29:021534 0/29:534201 2/27:425013 2/30:013245 2/25:451032 0/1(1):451302 10/23:342105 0/1(1):451023 5/20:105432 15/17:012453 0/1(2):450312 0/1(2):250431 0/1(1):453102 0/1(2):503142 0/1(1):503412 0/1(1):152043 0/1(1):352104 0/1(1):045321 0/1(1):321405 0/1(1):140352 0/1(1):352410 0/1(1):053241
p52
tp53
a(F52.74544095993042
L125441L
(lp54
g3
ag5
ag7
ag9
ag11
ag13
ag15
a(L10L
L25L
L0L
g20
tp55
a(L9L
L28L
L0L
g24
tp56
a(L19L
L24L
L0L
g22
tp57
a(L17L
L26L
L0L
V354102
p58
tp59
a(L0L
L1L
L2L
V351042
p60
tp61
a(L0L
L1L
L1L
V351402
p62
tp63
a(L14L
L16L
L0L
g26
tp64
a(L0L
L1L
L1L
g28
tp65
a(L0L
L1L
L3L
g30
tp66
a(L0L
L1L
L2L
g34
tp67
a(L0L
L1L
L1L
g36
tp68
a(L0L
L1L
L1L
g38
tp69
a(L0L
L1L
L1L
g40
tp70
a(L0L
L1L
L1L
g42
tp71
a(L0L
L1L
L1L
g44
tp72
a(L0L
L1L
L1L
g46
tp73
a(L0L
L1L
L1L
g48
tp74
a(L0L
L1L
L1L
g50
tp75
aV[1] lvl: 25 | 0/24:123450 0/31:450213 0/31:354021 0/29:021534 0/29:534201 2/27:425013 2/30:013245 10/25:342105 9/28:105432 19/24:451023 17/26:354102 0/1(2):351042 0/1(1):351402 14/16:012453 0/1(1):450312 0/1(3):250431 0/1(2):503142 0/1(1):503412 0/1(1):152043 0/1(1):352104 0/1(1):045321 0/1(1):321405 0/1(1):140352 0/1(1):352410 0/1(1):053241
p76
tp77
a.